(lp1
ccopy_reg
_reconstructor
p2
(c__main__
Entry
p3
c__builtin__
object
p4
NtRp5
(dp6
S'category'
p7
g2
(c__main__
Category
p8
g4
NtRp9
(dp10
S'name'
p11
S'B\xc3\xbccher/Literatur/Klassiker'
p12
sbsS'date'
p13
g2
(c__main__
Date
p14
g4
NtRp15
(dp16
g13
ctime
struct_time
p17
((I2011
I9
I10
I0
I0
I0
I5
I253
I-1
t(dtRp18
sbsS'notes'
p19
S''
sS'entrylist'
p20
g2
(c__main__
EntryList
p21
g4
NtRp22
(dp23
S'UI'
p24
g2
(c__main__
UI
p25
g4
NtRp26
(dp27
g20
g22
sbsS'entries'
p28
g1
sbsS'description'
p29
S'(H\xc3\xb6r-)B\xc3\xbccher vom Merkzettel Bookzilla besorgen\n'
p30
sbag2
(g3
g4
NtRp31
(dp32
g7
g2
(g8
g4
NtRp33
(dp34
g11
g12
sbsg13
g2
(g14
g4
NtRp35
(dp36
g13
g17
((I2011
I9
I10
I0
I0
I0
I5
I253
I-1
t(dtRp37
sbsg19
S''
sg20
g22
sg29
S'Babylon Babies\n'
p38
sbag2
(g3
g4
NtRp39
(dp40
g7
g2
(g8
g4
NtRp41
(dp42
g11
g12
sbsg13
g2
(g14
g4
NtRp43
(dp44
g13
g17
((I2011
I9
I10
I0
I0
I0
I5
I253
I-1
t(dtRp45
sbsg19
S''
sg20
g22
sg29
S'Chtulluh Romane gelesen haben\n'
p46
sbag2
(g3
g4
NtRp47
(dp48
g7
g2
(g8
g4
NtRp49
(dp50
g11
g12
sbsg13
g2
(g14
g4
NtRp51
(dp52
g13
g17
((I2011
I9
I10
I0
I0
I0
I5
I253
I-1
t(dtRp53
sbsg19
S''
sg20
g22
sg29
S'Cory Doctorow: Someone comes to town\n'
p54
sbag2
(g3
g4
NtRp55
(dp56
g7
g2
(g8
g4
NtRp57
(dp58
g11
g12
sbsg13
g2
(g14
g4
NtRp59
(dp60
g13
g17
((I2011
I9
I10
I0
I0
I0
I5
I253
I-1
t(dtRp61
sbsg19
S''
sg20
g22
sg29
S'Das innere Kind\n'
p62
sbag2
(g3
g4
NtRp63
(dp64
g7
g2
(g8
g4
NtRp65
(dp66
g11
g12
sbsg13
g2
(g14
g4
NtRp67
(dp68
g13
g17
((I2012
I9
I9
I0
I0
I0
I6
I253
I-1
t(dtRp69
sbsg19
S''
sg20
g22
sg29
S'David Foster Wallice: Georg Cantor\n'
p70
sbag2
(g3
g4
NtRp71
(dp72
g7
g2
(g8
g4
NtRp73
(dp74
g11
g12
sbsg13
g2
(g14
g4
NtRp75
(dp76
g13
g17
((I2012
I9
I9
I0
I0
I0
I6
I253
I-1
t(dtRp77
sbsg19
S''
sg20
g22
sg29
S'Faust lesen\n'
p78
sbag2
(g3
g4
NtRp79
(dp80
g7
g2
(g8
g4
NtRp81
(dp82
g11
g12
sbsg13
g2
(g14
g4
NtRp83
(dp84
g13
g17
((I2011
I9
I10
I0
I0
I0
I5
I253
I-1
t(dtRp85
sbsg19
S''
sg20
g22
sg29
S'Herr der Ringe lesen\n'
p86
sbag2
(g3
g4
NtRp87
(dp88
g7
g2
(g8
g4
NtRp89
(dp90
g11
g12
sbsg13
g2
(g14
g4
NtRp91
(dp92
g13
g17
((I2011
I9
I10
I0
I0
I0
I5
I253
I-1
t(dtRp93
sbsg19
S''
sg20
g22
sg29
S'How we decide\n'
p94
sbag2
(g3
g4
NtRp95
(dp96
g7
g2
(g8
g4
NtRp97
(dp98
g11
g12
sbsg13
g2
(g14
g4
NtRp99
(dp100
g13
g17
((I2011
I9
I10
I0
I0
I0
I5
I253
I-1
t(dtRp101
sbsg19
S''
sg20
g22
sg29
S'Literaturtipps nach Themen geordnet haben\n'
p102
sbag2
(g3
g4
NtRp103
(dp104
g7
g2
(g8
g4
NtRp105
(dp106
g11
g12
sbsg13
g2
(g14
g4
NtRp107
(dp108
g13
g17
((I2011
I9
I10
I0
I0
I0
I5
I253
I-1
t(dtRp109
sbsg19
S''
sg20
g22
sg29
S'Mark Twain\n'
p110
sbag2
(g3
g4
NtRp111
(dp112
g7
g2
(g8
g4
NtRp113
(dp114
g11
g12
sbsg13
g2
(g14
g4
NtRp115
(dp116
g13
g17
((I2011
I9
I10
I0
I0
I0
I5
I253
I-1
t(dtRp117
sbsg19
S''
sg20
g22
sg29
S'Patrick Rothfuss name of the wind\n'
p118
sbag2
(g3
g4
NtRp119
(dp120
g7
g2
(g8
g4
NtRp121
(dp122
g11
g12
sbsg13
g2
(g14
g4
NtRp123
(dp124
g13
g17
((I2011
I9
I10
I0
I0
I0
I5
I253
I-1
t(dtRp125
sbsg19
S''
sg20
g22
sg29
S'Planet der Tennisb\xc3\xa4lle\n'
p126
sbag2
(g3
g4
NtRp127
(dp128
g7
g2
(g8
g4
NtRp129
(dp130
g11
g12
sbsg13
g2
(g14
g4
NtRp131
(dp132
g13
g17
((I2011
I9
I10
I0
I0
I0
I5
I253
I-1
t(dtRp133
sbsg19
S''
sg20
g22
sg29
S'Platon lesen\n'
p134
sbag2
(g3
g4
NtRp135
(dp136
g7
g2
(g8
g4
NtRp137
(dp138
g11
g12
sbsg13
g2
(g14
g4
NtRp139
(dp140
g13
g17
((I2011
I6
I2
I0
I0
I0
I3
I153
I-1
t(dtRp141
sbsg19
S''
sg20
g22
sg29
S'Psychologie heute\n'
p142
sbag2
(g3
g4
NtRp143
(dp144
g7
g2
(g8
g4
NtRp145
(dp146
g11
g12
sbsg13
g2
(g14
g4
NtRp147
(dp148
g13
g17
((I2011
I9
I10
I0
I0
I0
I5
I253
I-1
t(dtRp149
sbsg19
S''
sg20
g22
sg29
S'Shakespeare lesen\n'
p150
sbag2
(g3
g4
NtRp151
(dp152
g7
g2
(g8
g4
NtRp153
(dp154
g11
g12
sbsg13
g2
(g14
g4
NtRp155
(dp156
g13
g17
((I2011
I9
I10
I0
I0
I0
I5
I253
I-1
t(dtRp157
sbsg19
S''
sg20
g22
sg29
S'Siehe [Literaturempfehlungen]\n'
p158
sbag2
(g3
g4
NtRp159
(dp160
g7
g2
(g8
g4
NtRp161
(dp162
g11
g12
sbsg13
g2
(g14
g4
NtRp163
(dp164
g13
g17
((I2011
I9
I10
I0
I0
I0
I5
I253
I-1
t(dtRp165
sbsg19
S''
sg20
g22
sg29
S'Steven Pressfield: The War of Art.\n'
p166
sbag2
(g3
g4
NtRp167
(dp168
g7
g2
(g8
g4
NtRp169
(dp170
g11
g12
sbsg13
g2
(g14
g4
NtRp171
(dp172
g13
g17
((I2011
I9
I10
I0
I0
I0
I5
I253
I-1
t(dtRp173
sbsg19
S''
sg20
g22
sg29
S'the long dark teatime of soul (Douglas Adams)\n'
p174
sbag2
(g3
g4
NtRp175
(dp176
g7
g2
(g8
g4
NtRp177
(dp178
g11
g12
sbsg13
g2
(g14
g4
NtRp179
(dp180
g13
g17
((I2011
I9
I10
I0
I0
I0
I5
I253
I-1
t(dtRp181
sbsg19
S''
sg20
g22
sg29
S'Weber: Protestantische Ethik\n'
p182
sbag2
(g3
g4
NtRp183
(dp184
g7
g2
(g8
g4
NtRp185
(dp186
g11
g12
sbsg13
g2
(g14
g4
NtRp187
(dp188
g13
g17
((I2011
I9
I10
I0
I0
I0
I5
I253
I-1
t(dtRp189
sbsg19
S''
sg20
g22
sg29
S'Werther lesen\n'
p190
sbag2
(g3
g4
NtRp191
(dp192
g7
g2
(g8
g4
NtRp193
(dp194
g11
S'Computer/Software/Websites'
p195
sbsg13
g2
(g14
g4
NtRp196
(dp197
g13
g17
((I2011
I9
I10
I0
I0
I0
I5
I253
I-1
t(dtRp198
sbsg19
S''
sg20
g22
sg29
S'Alle auf HD-PFU2 exisitierenden n\xc3\xbctzlichen Programme in Liste im brain\n'
p199
sbag2
(g3
g4
NtRp200
(dp201
g7
g2
(g8
g4
NtRp202
(dp203
g11
g195
sbsg13
g2
(g14
g4
NtRp204
(dp205
g13
g17
((I2011
I9
I10
I0
I0
I0
I5
I253
I-1
t(dtRp206
sbsg19
S''
sg20
g22
sg29
S'Anas Andy-Ordner ausdrucken\n'
p207
sbag2
(g3
g4
NtRp208
(dp209
g7
g2
(g8
g4
NtRp210
(dp211
g11
g195
sbsg13
g2
(g14
g4
NtRp212
(dp213
g13
g17
((I2011
I5
I10
I0
I0
I0
I1
I130
I-1
t(dtRp214
sbsg19
S''
sg20
g22
sg29
S'Backupsystem einrichten (1-Click)\n'
p215
sbag2
(g3
g4
NtRp216
(dp217
g7
g2
(g8
g4
NtRp218
(dp219
g11
g195
sbsg13
g2
(g14
g4
NtRp220
(dp221
g13
g17
((I2011
I9
I10
I0
I0
I0
I5
I253
I-1
t(dtRp222
sbsg19
S''
sg20
g22
sg29
S'CDs in der Spindel sichten Kiste im Keller\n'
p223
sbag2
(g3
g4
NtRp224
(dp225
g7
g2
(g8
g4
NtRp226
(dp227
g11
g195
sbsg13
g2
(g14
g4
NtRp228
(dp229
g13
g17
((I2011
I9
I10
I0
I0
I0
I5
I253
I-1
t(dtRp230
sbsg19
S''
sg20
g22
sg29
S'Doppelte Musik rauswerfen und die restliche Musik richtig taggen\n'
p231
sbag2
(g3
g4
NtRp232
(dp233
g7
g2
(g8
g4
NtRp234
(dp235
g11
g195
sbsg13
g2
(g14
g4
NtRp236
(dp237
g13
g17
((I2011
I5
I10
I0
I0
I0
I1
I130
I-1
t(dtRp238
sbsg19
S''
sg20
g22
sg29
S'Es gibt eine Python Website mit available modules nach Themen gegliedert\n'
p239
sbag2
(g3
g4
NtRp240
(dp241
g7
g2
(g8
g4
NtRp242
(dp243
g11
g195
sbsg13
g2
(g14
g4
NtRp244
(dp245
g13
g17
((I2011
I9
I10
I0
I0
I0
I5
I253
I-1
t(dtRp246
sbsg19
S''
sg20
g22
sg29
S'Facebook-Profil (Mit William James und Lars Ihsen anfreunden)\n'
p247
sbag2
(g3
g4
NtRp248
(dp249
g7
g2
(g8
g4
NtRp250
(dp251
g11
g195
sbsg13
g2
(g14
g4
NtRp252
(dp253
g13
g17
((I2011
I5
I10
I0
I0
I0
I1
I130
I-1
t(dtRp254
sbsg19
S''
sg20
g22
sg29
S'Gtd-app, das projekte und next actions dazu sammelt und anderen verf\xc3\xbcgbar, wenn sie gleiche Projekte, oder NAs haben  macht\n'
p255
sbag2
(g3
g4
NtRp256
(dp257
g7
g2
(g8
g4
NtRp258
(dp259
g11
g195
sbsg13
g2
(g14
g4
NtRp260
(dp261
g13
g17
((I2011
I9
I10
I0
I0
I0
I5
I253
I-1
t(dtRp262
sbsg19
S''
sg20
g22
sg29
S'Gutes Musikordnungssystem eingerichtet haben\n'
p263
sbag2
(g3
g4
NtRp264
(dp265
g7
g2
(g8
g4
NtRp266
(dp267
g11
g195
sbsg13
g2
(g14
g4
NtRp268
(dp269
g13
g17
((I2011
I9
I10
I0
I0
I0
I5
I253
I-1
t(dtRp270
sbsg19
S''
sg20
g22
sg29
S'Kinkless(Programm) ausprobieren\n'
p271
sbag2
(g3
g4
NtRp272
(dp273
g7
g2
(g8
g4
NtRp274
(dp275
g11
g195
sbsg13
g2
(g14
g4
NtRp276
(dp277
g13
g17
((I2011
I9
I10
I0
I0
I0
I5
I253
I-1
t(dtRp278
sbsg19
S''
sg20
g22
sg29
S'Mit OO-Database umgehen k\xc3\xb6nnen\n'
p279
sbag2
(g3
g4
NtRp280
(dp281
g7
g2
(g8
g4
NtRp282
(dp283
g11
g195
sbsg13
g2
(g14
g4
NtRp284
(dp285
g13
g17
((I2011
I9
I10
I0
I0
I0
I5
I253
I-1
t(dtRp286
sbsg19
S''
sg20
g22
sg29
S'mit OOOWriter Formulas umgehen k\xc3\xb6nnen\n'
p287
sbag2
(g3
g4
NtRp288
(dp289
g7
g2
(g8
g4
NtRp290
(dp291
g11
g195
sbsg13
g2
(g14
g4
NtRp292
(dp293
g13
g17
((I2011
I9
I10
I0
I0
I0
I5
I253
I-1
t(dtRp294
sbsg19
S''
sg20
g22
sg29
S'MP3-Sammlung von CDs auf Festplatte schieben\n'
p295
sbag2
(g3
g4
NtRp296
(dp297
g7
g2
(g8
g4
NtRp298
(dp299
g11
g195
sbsg13
g2
(g14
g4
NtRp300
(dp301
g13
g17
((I2011
I6
I7
I0
I0
I0
I1
I158
I-1
t(dtRp302
sbsg19
S''
sg20
g22
sg29
S'Neue Email Adressen an meine Keys h\xc3\xa4ngen\n'
p303
sbag2
(g3
g4
NtRp304
(dp305
g7
g2
(g8
g4
NtRp306
(dp307
g11
g195
sbsg13
g2
(g14
g4
NtRp308
(dp309
g13
g17
((I2011
I5
I10
I0
I0
I0
I1
I130
I-1
t(dtRp310
sbsg19
S''
sg20
g22
sg29
S'Passwortzyklen etablieren\n'
p311
sbag2
(g3
g4
NtRp312
(dp313
g7
g2
(g8
g4
NtRp314
(dp315
g11
g195
sbsg13
g2
(g14
g4
NtRp316
(dp317
g13
g17
((I2011
I6
I2
I0
I0
I0
I3
I153
I-1
t(dtRp318
sbsg19
S''
sg20
g22
sg29
S'Tor einrichten\n'
p319
sbag2
(g3
g4
NtRp320
(dp321
g7
g2
(g8
g4
NtRp322
(dp323
g11
S'F\xc3\xa4higkeiten/Zertifizierungen'
p324
sbsg13
g2
(g14
g4
NtRp325
(dp326
g13
g17
((I2012
I9
I9
I0
I0
I0
I6
I253
I-1
t(dtRp327
sbsg19
S''
sg20
g22
sg29
S'1000 WPM beim Lesen schaffen\n'
p328
sbag2
(g3
g4
NtRp329
(dp330
g7
g2
(g8
g4
NtRp331
(dp332
g11
g324
sbsg13
g2
(g14
g4
NtRp333
(dp334
g13
g17
((I2012
I9
I9
I0
I0
I0
I6
I253
I-1
t(dtRp335
sbsg19
S''
sg20
g22
sg29
S'\xc3\x84sthetisches Selbstbewusstsein entwickeln\n'
p336
sbag2
(g3
g4
NtRp337
(dp338
g7
g2
(g8
g4
NtRp339
(dp340
g11
g324
sbsg13
g2
(g14
g4
NtRp341
(dp342
g13
g17
((I2011
I9
I10
I0
I0
I0
I5
I253
I-1
t(dtRp343
sbsg19
S''
sg20
g22
sg29
S'Bachelor in Politikwissenschaft, Physik, Psychologie, ...\n'
p344
sbag2
(g3
g4
NtRp345
(dp346
g7
g2
(g8
g4
NtRp347
(dp348
g11
g324
sbsg13
g2
(g14
g4
NtRp349
(dp350
g13
g17
((I2011
I9
I10
I0
I0
I0
I5
I253
I-1
t(dtRp351
sbsg19
S''
sg20
g22
sg29
S'Design-Kurs mit Finn\n'
p352
sbag2
(g3
g4
NtRp353
(dp354
g7
g2
(g8
g4
NtRp355
(dp356
g11
g324
sbsg13
g2
(g14
g4
NtRp357
(dp358
g13
g17
((I2011
I6
I25
I0
I0
I0
I5
I176
I-1
t(dtRp359
sbsg19
S''
sg20
g22
sg29
S'Facilitation und Gruppenmethoden anleiten \xc3\xbcben\n'
p360
sbag2
(g3
g4
NtRp361
(dp362
g7
g2
(g8
g4
NtRp363
(dp364
g11
g324
sbsg13
g2
(g14
g4
NtRp365
(dp366
g13
g17
((I2011
I9
I10
I0
I0
I0
I5
I253
I-1
t(dtRp367
sbsg19
S''
sg20
g22
sg29
S'Franz\xc3\xb6sisch lernen\n'
p368
sbag2
(g3
g4
NtRp369
(dp370
g7
g2
(g8
g4
NtRp371
(dp372
g11
g324
sbsg13
g2
(g14
g4
NtRp373
(dp374
g13
g17
((I2012
I9
I9
I0
I0
I0
I6
I253
I-1
t(dtRp375
sbsg19
S''
sg20
g22
sg29
S'Geige spielen lernen\n'
p376
sbag2
(g3
g4
NtRp377
(dp378
g7
g2
(g8
g4
NtRp379
(dp380
g11
g324
sbsg13
g2
(g14
g4
NtRp381
(dp382
g13
g17
((I2011
I6
I2
I0
I0
I0
I3
I153
I-1
t(dtRp383
sbsg19
S''
sg20
g22
sg29
S'Gitarre spielen lernen\n'
p384
sbag2
(g3
g4
NtRp385
(dp386
g7
g2
(g8
g4
NtRp387
(dp388
g11
g324
sbsg13
g2
(g14
g4
NtRp389
(dp390
g13
g17
((I2012
I9
I9
I0
I0
I0
I6
I253
I-1
t(dtRp391
sbsg19
S''
sg20
g22
sg29
S'Grundschulp\xc3\xa4dagogik studieren\n'
p392
sbag2
(g3
g4
NtRp393
(dp394
g7
g2
(g8
g4
NtRp395
(dp396
g11
g324
sbsg13
g2
(g14
g4
NtRp397
(dp398
g13
g17
((I2012
I9
I9
I0
I0
I0
I6
I253
I-1
t(dtRp399
sbsg19
S''
sg20
g22
sg29
S'H\xc3\xa4keln\n'
p400
sbag2
(g3
g4
NtRp401
(dp402
g7
g2
(g8
g4
NtRp403
(dp404
g11
g324
sbsg13
g2
(g14
g4
NtRp405
(dp406
g13
g17
((I2013
I9
I9
I0
I0
I0
I0
I252
I-1
t(dtRp407
sbsg19
S''
sg20
g22
sg29
S'Japanisch lernen\n'
p408
sbag2
(g3
g4
NtRp409
(dp410
g7
g2
(g8
g4
NtRp411
(dp412
g11
g324
sbsg13
g2
(g14
g4
NtRp413
(dp414
g13
g17
((I2011
I5
I10
I0
I0
I0
I1
I130
I-1
t(dtRp415
sbsg19
S''
sg20
g22
sg29
S'leckeren Pizzateig machen lernen (Viele Mini Pizzen machen und als chemischen Versuch durchf\xc3\xbchren, mit pedantischer Dokumentatio\n'
p416
sbag2
(g3
g4
NtRp417
(dp418
g7
g2
(g8
g4
NtRp419
(dp420
g11
g324
sbsg13
g2
(g14
g4
NtRp421
(dp422
g13
g17
((I2011
I6
I2
I0
I0
I0
I3
I153
I-1
t(dtRp423
sbsg19
S''
sg20
g22
sg29
S'leckeren s\xc3\xbc\xc3\x9fen Hefeteig/Hefest\xc3\xbcckchen machen lernen\n'
p424
sbag2
(g3
g4
NtRp425
(dp426
g7
g2
(g8
g4
NtRp427
(dp428
g11
g324
sbsg13
g2
(g14
g4
NtRp429
(dp430
g13
g17
((I2011
I9
I10
I0
I0
I0
I5
I253
I-1
t(dtRp431
sbsg19
S''
sg20
g22
sg29
S'Malen\n'
p432
sbag2
(g3
g4
NtRp433
(dp434
g7
g2
(g8
g4
NtRp435
(dp436
g11
g324
sbsg13
g2
(g14
g4
NtRp437
(dp438
g13
g17
((I2011
I6
I2
I0
I0
I0
I3
I153
I-1
t(dtRp439
sbsg19
S''
sg20
g22
sg29
S'Massieren lernen\n'
p440
sbag2
(g3
g4
NtRp441
(dp442
g7
g2
(g8
g4
NtRp443
(dp444
g11
g324
sbsg13
g2
(g14
g4
NtRp445
(dp446
g13
g17
((I2011
I6
I7
I0
I0
I0
I1
I158
I-1
t(dtRp447
sbsg19
S''
sg20
g22
sg29
S'Master in Informatik\n'
p448
sbag2
(g3
g4
NtRp449
(dp450
g7
g2
(g8
g4
NtRp451
(dp452
g11
g324
sbsg13
g2
(g14
g4
NtRp453
(dp454
g13
g17
((I2011
I9
I10
I0
I0
I0
I5
I253
I-1
t(dtRp455
sbsg19
S''
sg20
g22
sg29
S'Mathe-Master\n'
p456
sbag2
(g3
g4
NtRp457
(dp458
g7
g2
(g8
g4
NtRp459
(dp460
g11
g324
sbsg13
g2
(g14
g4
NtRp461
(dp462
g13
g17
((I2011
I9
I10
I0
I0
I0
I5
I253
I-1
t(dtRp463
sbsg19
S''
sg20
g22
sg29
S'Musik machen: Gitarre, Trommeln, auf dem Rechner, Klavier/Keyboard, auf Gegenst\xc3\xa4nden, ...\n'
p464
sbag2
(g3
g4
NtRp465
(dp466
g7
g2
(g8
g4
NtRp467
(dp468
g11
g324
sbsg13
g2
(g14
g4
NtRp469
(dp470
g13
g17
((I2011
I9
I10
I0
I0
I0
I5
I253
I-1
t(dtRp471
sbsg19
S''
sg20
g22
sg29
S'Parkour mit Ludwig\n'
p472
sbag2
(g3
g4
NtRp473
(dp474
g7
g2
(g8
g4
NtRp475
(dp476
g11
g324
sbsg13
g2
(g14
g4
NtRp477
(dp478
g13
g17
((I2011
I5
I10
I0
I0
I0
I1
I130
I-1
t(dtRp479
sbsg19
S''
sg20
g22
sg29
S'Programmierkurse\n'
p480
sbag2
(g3
g4
NtRp481
(dp482
g7
g2
(g8
g4
NtRp483
(dp484
g11
g324
sbsg13
g2
(g14
g4
NtRp485
(dp486
g13
g17
((I2013
I9
I9
I0
I0
I0
I0
I252
I-1
t(dtRp487
sbsg19
S''
sg20
g22
sg29
S'Russisch lernen\n'
p488
sbag2
(g3
g4
NtRp489
(dp490
g7
g2
(g8
g4
NtRp491
(dp492
g11
g324
sbsg13
g2
(g14
g4
NtRp493
(dp494
g13
g17
((I2011
I9
I10
I0
I0
I0
I5
I253
I-1
t(dtRp495
sbsg19
S''
sg20
g22
sg29
S'Schule nutzen um meine Methodenkompetenz zu trainieren (Pr\xc3\xa4sentieren usw. auch f\xc3\xbcr GTD-Workshops)\n'
p496
sbag2
(g3
g4
NtRp497
(dp498
g7
g2
(g8
g4
NtRp499
(dp500
g11
g324
sbsg13
g2
(g14
g4
NtRp501
(dp502
g13
g17
((I2011
I9
I10
I0
I0
I0
I5
I253
I-1
t(dtRp503
sbsg19
S''
sg20
g22
sg29
S'Singen\n'
p504
sbag2
(g3
g4
NtRp505
(dp506
g7
g2
(g8
g4
NtRp507
(dp508
g11
g324
sbsg13
g2
(g14
g4
NtRp509
(dp510
g13
g17
((I2011
I6
I25
I0
I0
I0
I5
I176
I-1
t(dtRp511
sbsg19
S''
sg20
g22
sg29
S'Spanisch verbessern\n'
p512
sbag2
(g3
g4
NtRp513
(dp514
g7
g2
(g8
g4
NtRp515
(dp516
g11
g324
sbsg13
g2
(g14
g4
NtRp517
(dp518
g13
g17
((I2011
I6
I25
I0
I0
I0
I5
I176
I-1
t(dtRp519
sbsg19
S''
sg20
g22
sg29
S'Theaterausbildung\n'
p520
sbag2
(g3
g4
NtRp521
(dp522
g7
g2
(g8
g4
NtRp523
(dp524
g11
g324
sbsg13
g2
(g14
g4
NtRp525
(dp526
g13
g17
((I2011
I5
I10
I0
I0
I0
I1
I130
I-1
t(dtRp527
sbsg19
S''
sg20
g22
sg29
S'WT-Kurs anfangen\n'
p528
sbag2
(g3
g4
NtRp529
(dp530
g7
g2
(g8
g4
NtRp531
(dp532
g11
g324
sbsg13
g2
(g14
g4
NtRp533
(dp534
g13
g17
((I2011
I9
I10
I0
I0
I0
I5
I253
I-1
t(dtRp535
sbsg19
S''
sg20
g22
sg29
S'Zeichnen (Zeitschrift: Die Zeichenschule)\n'
p536
sbag2
(g3
g4
NtRp537
(dp538
g7
g2
(g8
g4
NtRp539
(dp540
g11
S'Filme und Serien'
p541
sbsg13
g2
(g14
g4
NtRp542
(dp543
g13
g17
((I2011
I9
I10
I0
I0
I0
I5
I253
I-1
t(dtRp544
sbsg19
S''
sg20
g22
sg29
S'11th Hour\n'
p545
sbag2
(g3
g4
NtRp546
(dp547
g7
g2
(g8
g4
NtRp548
(dp549
g11
g541
sbsg13
g2
(g14
g4
NtRp550
(dp551
g13
g17
((I2011
I9
I10
I0
I0
I0
I5
I253
I-1
t(dtRp552
sbsg19
S''
sg20
g22
sg29
S'Absolute Giganten\n'
p553
sbag2
(g3
g4
NtRp554
(dp555
g7
g2
(g8
g4
NtRp556
(dp557
g11
g541
sbsg13
g2
(g14
g4
NtRp558
(dp559
g13
g17
((I2011
I9
I10
I0
I0
I0
I5
I253
I-1
t(dtRp560
sbsg19
S''
sg20
g22
sg29
S'Akira\n'
p561
sbag2
(g3
g4
NtRp562
(dp563
g7
g2
(g8
g4
NtRp564
(dp565
g11
g541
sbsg13
g2
(g14
g4
NtRp566
(dp567
g13
g17
((I2011
I9
I10
I0
I0
I0
I5
I253
I-1
t(dtRp568
sbsg19
S''
sg20
g22
sg29
S'Alias\n'
p569
sbag2
(g3
g4
NtRp570
(dp571
g7
g2
(g8
g4
NtRp572
(dp573
g11
g541
sbsg13
g2
(g14
g4
NtRp574
(dp575
g13
g17
((I2011
I9
I10
I0
I0
I0
I5
I253
I-1
t(dtRp576
sbsg19
S''
sg20
g22
sg29
S'Amercian Psycho\n'
p577
sbag2
(g3
g4
NtRp578
(dp579
g7
g2
(g8
g4
NtRp580
(dp581
g11
g541
sbsg13
g2
(g14
g4
NtRp582
(dp583
g13
g17
((I2011
I9
I10
I0
I0
I0
I5
I253
I-1
t(dtRp584
sbsg19
S''
sg20
g22
sg29
S'Catch 22 (Joseph Heller)\n'
p585
sbag2
(g3
g4
NtRp586
(dp587
g7
g2
(g8
g4
NtRp588
(dp589
g11
g541
sbsg13
g2
(g14
g4
NtRp590
(dp591
g13
g17
((I2011
I7
I7
I0
I0
I0
I3
I188
I-1
t(dtRp592
sbsg19
S''
sg20
g22
sg29
S'Crude Impact\n'
p593
sbag2
(g3
g4
NtRp594
(dp595
g7
g2
(g8
g4
NtRp596
(dp597
g11
g541
sbsg13
g2
(g14
g4
NtRp598
(dp599
g13
g17
((I2011
I7
I7
I0
I0
I0
I3
I188
I-1
t(dtRp600
sbsg19
S''
sg20
g22
sg29
S'D\xc3\xa4mon-Film mit \xe2\x80\x9cTime is on my side\xe2\x80\x9c\n'
p601
sbag2
(g3
g4
NtRp602
(dp603
g7
g2
(g8
g4
NtRp604
(dp605
g11
g541
sbsg13
g2
(g14
g4
NtRp606
(dp607
g13
g17
((I2011
I7
I7
I0
I0
I0
I3
I188
I-1
t(dtRp608
sbsg19
S''
sg20
g22
sg29
S'East is east\n'
p609
sbag2
(g3
g4
NtRp610
(dp611
g7
g2
(g8
g4
NtRp612
(dp613
g11
g541
sbsg13
g2
(g14
g4
NtRp614
(dp615
g13
g17
((I2011
I9
I11
I0
I0
I0
I6
I254
I-1
t(dtRp616
sbsg19
S''
sg20
g22
sg29
S'Einer flog \xc3\xbcber das Kuckucksnest\n'
p617
sbag2
(g3
g4
NtRp618
(dp619
g7
g2
(g8
g4
NtRp620
(dp621
g11
g541
sbsg13
g2
(g14
g4
NtRp622
(dp623
g13
g17
((I2011
I5
I9
I0
I0
I0
I0
I129
I-1
t(dtRp624
sbsg19
S''
sg20
g22
sg29
S'Empire St. Pauli (kapitalismuskritisch)\n'
p625
sbag2
(g3
g4
NtRp626
(dp627
g7
g2
(g8
g4
NtRp628
(dp629
g11
g541
sbsg13
g2
(g14
g4
NtRp630
(dp631
g13
g17
((I2012
I3
I31
I0
I0
I0
I5
I91
I-1
t(dtRp632
sbsg19
S''
sg20
g22
sg29
S'Fabian\n'
p633
sbag2
(g3
g4
NtRp634
(dp635
g7
g2
(g8
g4
NtRp636
(dp637
g11
g541
sbsg13
g2
(g14
g4
NtRp638
(dp639
g13
g17
((I2011
I9
I11
I0
I0
I0
I6
I254
I-1
t(dtRp640
sbsg19
S''
sg20
g22
sg29
S'Ghost in the shell\n'
p641
sbag2
(g3
g4
NtRp642
(dp643
g7
g2
(g8
g4
NtRp644
(dp645
g11
g541
sbsg13
g2
(g14
g4
NtRp646
(dp647
g13
g17
((I2011
I9
I11
I0
I0
I0
I6
I254
I-1
t(dtRp648
sbsg19
S''
sg20
g22
sg29
S'Hass\n'
p649
sbag2
(g3
g4
NtRp650
(dp651
g7
g2
(g8
g4
NtRp652
(dp653
g11
g541
sbsg13
g2
(g14
g4
NtRp654
(dp655
g13
g17
((I2011
I9
I11
I0
I0
I0
I6
I254
I-1
t(dtRp656
sbsg19
S''
sg20
g22
sg29
S'Healing Sex\n'
p657
sbag2
(g3
g4
NtRp658
(dp659
g7
g2
(g8
g4
NtRp660
(dp661
g11
g541
sbsg13
g2
(g14
g4
NtRp662
(dp663
g13
g17
((I2011
I6
I8
I0
I0
I0
I2
I159
I-1
t(dtRp664
sbsg19
S''
sg20
g22
sg29
S'Herr der Ringe nochmal besorgen\n'
p665
sbag2
(g3
g4
NtRp666
(dp667
g7
g2
(g8
g4
NtRp668
(dp669
g11
g541
sbsg13
g2
(g14
g4
NtRp670
(dp671
g13
g17
((I2011
I6
I2
I0
I0
I0
I3
I153
I-1
t(dtRp672
sbsg19
S''
sg20
g22
sg29
S'Lauras Stern\n'
p673
sbag2
(g3
g4
NtRp674
(dp675
g7
g2
(g8
g4
NtRp676
(dp677
g11
g541
sbsg13
g2
(g14
g4
NtRp678
(dp679
g13
g17
((I2011
I9
I11
I0
I0
I0
I6
I254
I-1
t(dtRp680
sbsg19
S''
sg20
g22
sg29
S'Love Exposure\n'
p681
sbag2
(g3
g4
NtRp682
(dp683
g7
g2
(g8
g4
NtRp684
(dp685
g11
g541
sbsg13
g2
(g14
g4
NtRp686
(dp687
g13
g17
((I2011
I9
I11
I0
I0
I0
I6
I254
I-1
t(dtRp688
sbsg19
S''
sg20
g22
sg29
S'minority report\n'
p689
sbag2
(g3
g4
NtRp690
(dp691
g7
g2
(g8
g4
NtRp692
(dp693
g11
g541
sbsg13
g2
(g14
g4
NtRp694
(dp695
g13
g17
((I2011
I9
I11
I0
I0
I0
I6
I254
I-1
t(dtRp696
sbsg19
S''
sg20
g22
sg29
S'New Yorck f\xc3\xbcr Anf\xc3\xa4nger\n'
p697
sbag2
(g3
g4
NtRp698
(dp699
g7
g2
(g8
g4
NtRp700
(dp701
g11
g541
sbsg13
g2
(g14
g4
NtRp702
(dp703
g13
g17
((I2011
I9
I11
I0
I0
I0
I6
I254
I-1
t(dtRp704
sbsg19
S''
sg20
g22
sg29
S'Night on Earth\n'
p705
sbag2
(g3
g4
NtRp706
(dp707
g7
g2
(g8
g4
NtRp708
(dp709
g11
g541
sbsg13
g2
(g14
g4
NtRp710
(dp711
g13
g17
((I2011
I6
I8
I0
I0
I0
I2
I159
I-1
t(dtRp712
sbsg19
S''
sg20
g22
sg29
S'Novemberkind\n'
p713
sbag2
(g3
g4
NtRp714
(dp715
g7
g2
(g8
g4
NtRp716
(dp717
g11
g541
sbsg13
g2
(g14
g4
NtRp718
(dp719
g13
g17
((I2011
I9
I11
I0
I0
I0
I6
I254
I-1
t(dtRp720
sbsg19
S''
sg20
g22
sg29
S'Rize (Tanzfilm)\n'
p721
sbag2
(g3
g4
NtRp722
(dp723
g7
g2
(g8
g4
NtRp724
(dp725
g11
g541
sbsg13
g2
(g14
g4
NtRp726
(dp727
g13
g17
((I2011
I7
I8
I0
I0
I0
I4
I189
I-1
t(dtRp728
sbsg19
S''
sg20
g22
sg29
S'Robbi, Tobbi und das Fliehwat\xc3\xbct\n'
p729
sbag2
(g3
g4
NtRp730
(dp731
g7
g2
(g8
g4
NtRp732
(dp733
g11
g541
sbsg13
g2
(g14
g4
NtRp734
(dp735
g13
g17
((I2011
I9
I11
I0
I0
I0
I6
I254
I-1
t(dtRp736
sbsg19
S''
sg20
g22
sg29
S'Rquiem for a dream\n'
p737
sbag2
(g3
g4
NtRp738
(dp739
g7
g2
(g8
g4
NtRp740
(dp741
g11
g541
sbsg13
g2
(g14
g4
NtRp742
(dp743
g13
g17
((I2011
I9
I11
I0
I0
I0
I6
I254
I-1
t(dtRp744
sbsg19
S''
sg20
g22
sg29
S'Schmetterling und Taucherglocke\n'
p745
sbag2
(g3
g4
NtRp746
(dp747
g7
g2
(g8
g4
NtRp748
(dp749
g11
g541
sbsg13
g2
(g14
g4
NtRp750
(dp751
g13
g17
((I2011
I9
I11
I0
I0
I0
I6
I254
I-1
t(dtRp752
sbsg19
S''
sg20
g22
sg29
S'Surfs Up\n'
p753
sbag2
(g3
g4
NtRp754
(dp755
g7
g2
(g8
g4
NtRp756
(dp757
g11
g541
sbsg13
g2
(g14
g4
NtRp758
(dp759
g13
g17
((I2011
I5
I9
I0
I0
I0
I0
I129
I-1
t(dtRp760
sbsg19
S''
sg20
g22
sg29
S'Zusammen\n'
p761
sbag2
(g3
g4
NtRp762
(dp763
g7
g2
(g8
g4
NtRp764
(dp765
g11
S'Finanzen/Jobs'
p766
sbsg13
g2
(g14
g4
NtRp767
(dp768
g13
g17
((I2011
I6
I2
I0
I0
I0
I3
I153
I-1
t(dtRp769
sbsg19
S''
sg20
g22
sg29
S'Kreditkarte beantragen\n'
p770
sbag2
(g3
g4
NtRp771
(dp772
g7
g2
(g8
g4
NtRp773
(dp774
g11
g766
sbsg13
g2
(g14
g4
NtRp775
(dp776
g13
g17
((I2011
I5
I10
I0
I0
I0
I1
I130
I-1
t(dtRp777
sbsg19
S''
sg20
g22
sg29
S'Lebenslauf verbessern (siehe Claudi-Buch)\n'
p778
sbag2
(g3
g4
NtRp779
(dp780
g7
g2
(g8
g4
NtRp781
(dp782
g11
g766
sbsg13
g2
(g14
g4
NtRp783
(dp784
g13
g17
((I2011
I5
I9
I0
I0
I0
I0
I129
I-1
t(dtRp785
sbsg19
S''
sg20
g22
sg29
S'Mich um Mathe Rockt/U8 e.V. k\xc3\xbcmmern\n'
p786
sbag2
(g3
g4
NtRp787
(dp788
g7
g2
(g8
g4
NtRp789
(dp790
g11
g766
sbsg13
g2
(g14
g4
NtRp791
(dp792
g13
g17
((I2011
I5
I10
I0
I0
I0
I1
I130
I-1
t(dtRp793
sbsg19
S''
sg20
g22
sg29
S'RND: GTD Job-M\xc3\xb6glichkeiten (auch Copyright-Problem)\n'
p794
sbag2
(g3
g4
NtRp795
(dp796
g7
g2
(g8
g4
NtRp797
(dp798
g11
S'Haushalt-Wohnung'
p799
sbsg13
g2
(g14
g4
NtRp800
(dp801
g13
g17
((I2011
I6
I2
I0
I0
I0
I3
I153
I-1
t(dtRp802
sbsg19
S''
sg20
g22
sg29
S'Keller aufr\xc3\xa4umen (Kohle wegputzen usw.)\n'
p803
sbag2
(g3
g4
NtRp804
(dp805
g7
g2
(g8
g4
NtRp806
(dp807
g11
g799
sbsg13
g2
(g14
g4
NtRp808
(dp809
g13
g17
((I2011
I6
I2
I0
I0
I0
I3
I153
I-1
t(dtRp810
sbsg19
S''
sg20
g22
sg29
S'guter Schreibtischstuhl\n'
p811
sbag2
(g3
g4
NtRp812
(dp813
g7
g2
(g8
g4
NtRp814
(dp815
g11
g799
sbsg13
g2
(g14
g4
NtRp816
(dp817
g13
g17
((I2011
I6
I2
I0
I0
I0
I3
I153
I-1
t(dtRp818
sbsg19
S''
sg20
g22
sg29
S'Lichtwecker\n'
p819
sbag2
(g3
g4
NtRp820
(dp821
g7
g2
(g8
g4
NtRp822
(dp823
g11
g799
sbsg13
g2
(g14
g4
NtRp824
(dp825
g13
g17
((I2011
I9
I11
I0
I0
I0
I6
I254
I-1
t(dtRp826
sbsg19
S''
sg20
g22
sg29
S'Neue Matratze kaufen (600\xe2\x82\xac?)\n'
p827
sbag2
(g3
g4
NtRp828
(dp829
g7
g2
(g8
g4
NtRp830
(dp831
g11
g799
sbsg13
g2
(g14
g4
NtRp832
(dp833
g13
g17
((I2011
I6
I2
I0
I0
I0
I3
I153
I-1
t(dtRp834
sbsg19
S''
sg20
g22
sg29
S'Schrank besorgen\n'
p835
sbag2
(g3
g4
NtRp836
(dp837
g7
g2
(g8
g4
NtRp838
(dp839
g11
g799
sbsg13
g2
(g14
g4
NtRp840
(dp841
g13
g17
((I2011
I5
I18
I0
I0
I0
I2
I138
I-1
t(dtRp842
sbsg19
S''
sg20
g22
sg29
S'Schuhablage\n'
p843
sbag2
(g3
g4
NtRp844
(dp845
g7
g2
(g8
g4
NtRp846
(dp847
g11
g799
sbsg13
g2
(g14
g4
NtRp848
(dp849
g13
g17
((I2011
I6
I2
I0
I0
I0
I3
I153
I-1
t(dtRp850
sbsg19
S''
sg20
g22
sg29
S'Gitarre kaufen (Kochstr.\n'
p851
sbag2
(g3
g4
NtRp852
(dp853
g7
g2
(g8
g4
NtRp854
(dp855
g11
g799
sbsg13
g2
(g14
g4
NtRp856
(dp857
g13
g17
((I2011
I6
I2
I0
I0
I0
I3
I153
I-1
t(dtRp858
sbsg19
S''
sg20
g22
sg29
S'Lattenrostupgrade\n'
p859
sbag2
(g3
g4
NtRp860
(dp861
g7
g2
(g8
g4
NtRp862
(dp863
g11
g799
sbsg13
g2
(g14
g4
NtRp864
(dp865
g13
g17
((I2011
I6
I2
I0
I0
I0
I3
I153
I-1
t(dtRp866
sbsg19
S''
sg20
g22
sg29
S'W\xc3\xa4sche: f\xc3\xbcr alles einen Platz finden\n'
p867
sbag2
(g3
g4
NtRp868
(dp869
g7
g2
(g8
g4
NtRp870
(dp871
g11
S'Leute/Soziale Beziehungen'
p872
sbsg13
g2
(g14
g4
NtRp873
(dp874
g13
g17
((I2011
I6
I2
I0
I0
I0
I3
I153
I-1
t(dtRp875
sbsg19
S''
sg20
g22
sg29
S'Mit Freunden Urlaub machen\n'
p876
sbag2
(g3
g4
NtRp877
(dp878
g7
g2
(g8
g4
NtRp879
(dp880
g11
g872
sbsg13
g2
(g14
g4
NtRp881
(dp882
g13
g17
((I2011
I9
I11
I0
I0
I0
I6
I254
I-1
t(dtRp883
sbsg19
S''
sg20
g22
sg29
S'Mit Jana einen Band zum Wissenschaftlichen Arbeiten verfassen\n'
p884
sbag2
(g3
g4
NtRp885
(dp886
g7
g2
(g8
g4
NtRp887
(dp888
g11
g872
sbsg13
g2
(g14
g4
NtRp889
(dp890
g13
g17
((I2011
I5
I10
I0
I0
I0
I1
I130
I-1
t(dtRp891
sbsg19
S''
sg20
g22
sg29
S'Mit Lasse verabreden\n'
p892
sbag2
(g3
g4
NtRp893
(dp894
g7
g2
(g8
g4
NtRp895
(dp896
g11
g872
sbsg13
g2
(g14
g4
NtRp897
(dp898
g13
g17
((I2011
I9
I11
I0
I0
I0
I6
I254
I-1
t(dtRp899
sbsg19
S''
sg20
g22
sg29
S'sportliche Freundin haben\n'
p900
sbag2
(g3
g4
NtRp901
(dp902
g7
g2
(g8
g4
NtRp903
(dp904
g11
g872
sbsg13
g2
(g14
g4
NtRp905
(dp906
g13
g17
((I2011
I5
I10
I0
I0
I0
I1
I130
I-1
t(dtRp907
sbsg19
S''
sg20
g22
sg29
S'Visioning perfekter Freundeskreis\n'
p908
sbag2
(g3
g4
NtRp909
(dp910
g7
g2
(g8
g4
NtRp911
(dp912
g11
S'Mathematisches'
p913
sbsg13
g2
(g14
g4
NtRp914
(dp915
g13
g17
((I2011
I6
I2
I0
I0
I0
I3
I153
I-1
t(dtRp916
sbsg19
S''
sg20
g22
sg29
S'Meine Elle usw. als Referenmessgr\xc3\xb6\xc3\x9fen messen und notieren\n'
p917
sbag2
(g3
g4
NtRp918
(dp919
g7
g2
(g8
g4
NtRp920
(dp921
g11
S'Musik'
p922
sbsg13
g2
(g14
g4
NtRp923
(dp924
g13
g17
((I2011
I6
I3
I0
I0
I0
I4
I154
I-1
t(dtRp925
sbsg19
S''
sg20
g22
sg29
S'A Kiss With A Fist von Florence And The Machine\n'
p926
sbag2
(g3
g4
NtRp927
(dp928
g7
g2
(g8
g4
NtRp929
(dp930
g11
g922
sbsg13
g2
(g14
g4
NtRp931
(dp932
g13
g17
((I2011
I6
I3
I0
I0
I0
I4
I154
I-1
t(dtRp933
sbsg19
S''
sg20
g22
sg29
S'All Saints\n'
p934
sbag2
(g3
g4
NtRp935
(dp936
g7
g2
(g8
g4
NtRp937
(dp938
g11
g922
sbsg13
g2
(g14
g4
NtRp939
(dp940
g13
g17
((I2011
I6
I3
I0
I0
I0
I4
I154
I-1
t(dtRp941
sbsg19
S''
sg20
g22
sg29
S'Andre minvielle\n'
p942
sbag2
(g3
g4
NtRp943
(dp944
g7
g2
(g8
g4
NtRp945
(dp946
g11
g922
sbsg13
g2
(g14
g4
NtRp947
(dp948
g13
g17
((I2011
I6
I3
I0
I0
I0
I4
I154
I-1
t(dtRp949
sbsg19
S''
sg20
g22
sg29
S'Anette Luisanne\n'
p950
sbag2
(g3
g4
NtRp951
(dp952
g7
g2
(g8
g4
NtRp953
(dp954
g11
g922
sbsg13
g2
(g14
g4
NtRp955
(dp956
g13
g17
((I2011
I6
I3
I0
I0
I0
I4
I154
I-1
t(dtRp957
sbsg19
S''
sg20
g22
sg29
S'Blackened von Hellsongs.\n'
p958
sbag2
(g3
g4
NtRp959
(dp960
g7
g2
(g8
g4
NtRp961
(dp962
g11
g922
sbsg13
g2
(g14
g4
NtRp963
(dp964
g13
g17
((I2011
I6
I3
I0
I0
I0
I4
I154
I-1
t(dtRp965
sbsg19
S''
sg20
g22
sg29
S'Boombaker\n'
p966
sbag2
(g3
g4
NtRp967
(dp968
g7
g2
(g8
g4
NtRp969
(dp970
g11
g922
sbsg13
g2
(g14
g4
NtRp971
(dp972
g13
g17
((I2011
I6
I3
I0
I0
I0
I4
I154
I-1
t(dtRp973
sbsg19
S''
sg20
g22
sg29
S'Cobra Killer\n'
p974
sbag2
(g3
g4
NtRp975
(dp976
g7
g2
(g8
g4
NtRp977
(dp978
g11
g922
sbsg13
g2
(g14
g4
NtRp979
(dp980
g13
g17
((I2011
I6
I3
I0
I0
I0
I4
I154
I-1
t(dtRp981
sbsg19
S''
sg20
g22
sg29
S'Code 46 Soundtrack\n'
p982
sbag2
(g3
g4
NtRp983
(dp984
g7
g2
(g8
g4
NtRp985
(dp986
g11
g922
sbsg13
g2
(g14
g4
NtRp987
(dp988
g13
g17
((I2011
I6
I3
I0
I0
I0
I4
I154
I-1
t(dtRp989
sbsg19
S''
sg20
g22
sg29
S'Constantine Soundtrack\n'
p990
sbag2
(g3
g4
NtRp991
(dp992
g7
g2
(g8
g4
NtRp993
(dp994
g11
g922
sbsg13
g2
(g14
g4
NtRp995
(dp996
g13
g17
((I2011
I6
I3
I0
I0
I0
I4
I154
I-1
t(dtRp997
sbsg19
S''
sg20
g22
sg29
S'Dallas Green\n'
p998
sbag2
(g3
g4
NtRp999
(dp1000
g7
g2
(g8
g4
NtRp1001
(dp1002
g11
g922
sbsg13
g2
(g14
g4
NtRp1003
(dp1004
g13
g17
((I2011
I6
I3
I0
I0
I0
I4
I154
I-1
t(dtRp1005
sbsg19
S''
sg20
g22
sg29
S'Deathcab for Cutie\n'
p1006
sbag2
(g3
g4
NtRp1007
(dp1008
g7
g2
(g8
g4
NtRp1009
(dp1010
g11
g922
sbsg13
g2
(g14
g4
NtRp1011
(dp1012
g13
g17
((I2011
I6
I3
I0
I0
I0
I4
I154
I-1
t(dtRp1013
sbsg19
S''
sg20
g22
sg29
S'Devendra Banhart\n'
p1014
sbag2
(g3
g4
NtRp1015
(dp1016
g7
g2
(g8
g4
NtRp1017
(dp1018
g11
g922
sbsg13
g2
(g14
g4
NtRp1019
(dp1020
g13
g17
((I2011
I6
I3
I0
I0
I0
I4
I154
I-1
t(dtRp1021
sbsg19
S''
sg20
g22
sg29
S'Elias Mania\n'
p1022
sbag2
(g3
g4
NtRp1023
(dp1024
g7
g2
(g8
g4
NtRp1025
(dp1026
g11
g922
sbsg13
g2
(g14
g4
NtRp1027
(dp1028
g13
g17
((I2011
I6
I3
I0
I0
I0
I4
I154
I-1
t(dtRp1029
sbsg19
S''
sg20
g22
sg29
S'Fast and Furious Toki Drift Soundtrack besorgen\n'
p1030
sbag2
(g3
g4
NtRp1031
(dp1032
g7
g2
(g8
g4
NtRp1033
(dp1034
g11
g922
sbsg13
g2
(g14
g4
NtRp1035
(dp1036
g13
g17
((I2011
I6
I3
I0
I0
I0
I4
I154
I-1
t(dtRp1037
sbsg19
S''
sg20
g22
sg29
S'Half Asleep von School Of Seven Bells\n'
p1038
sbag2
(g3
g4
NtRp1039
(dp1040
g7
g2
(g8
g4
NtRp1041
(dp1042
g11
g922
sbsg13
g2
(g14
g4
NtRp1043
(dp1044
g13
g17
((I2011
I6
I3
I0
I0
I0
I4
I154
I-1
t(dtRp1045
sbsg19
S''
sg20
g22
sg29
S'Hypem.com (Hype Machine) ausprobieren\n'
p1046
sbag2
(g3
g4
NtRp1047
(dp1048
g7
g2
(g8
g4
NtRp1049
(dp1050
g11
g922
sbsg13
g2
(g14
g4
NtRp1051
(dp1052
g13
g17
((I2011
I5
I11
I0
I0
I0
I2
I131
I-1
t(dtRp1053
sbsg19
S''
sg20
g22
sg29
S'Ich und mein Tiger\n'
p1054
sbag2
(g3
g4
NtRp1055
(dp1056
g7
g2
(g8
g4
NtRp1057
(dp1058
g11
g922
sbsg13
g2
(g14
g4
NtRp1059
(dp1060
g13
g17
((I2011
I6
I3
I0
I0
I0
I4
I154
I-1
t(dtRp1061
sbsg19
S''
sg20
g22
sg29
S'Inn\xc3\xad M\xc3\xa9r Syngur Vitleysingur von Sigur R\xc3\xb3s\n'
p1062
sbag2
(g3
g4
NtRp1063
(dp1064
g7
g2
(g8
g4
NtRp1065
(dp1066
g11
g922
sbsg13
g2
(g14
g4
NtRp1067
(dp1068
g13
g17
((I2011
I5
I11
I0
I0
I0
I2
I131
I-1
t(dtRp1069
sbsg19
S''
sg20
g22
sg29
S'Meine Musik nach ausruhen und Aufregung taggen\n'
p1070
sbag2
(g3
g4
NtRp1071
(dp1072
g7
g2
(g8
g4
NtRp1073
(dp1074
g11
g922
sbsg13
g2
(g14
g4
NtRp1075
(dp1076
g13
g17
((I2011
I6
I3
I0
I0
I0
I4
I154
I-1
t(dtRp1077
sbsg19
S''
sg20
g22
sg29
S'Mittelalter/Fr\xc3\xbche Neuzeit/Aufbruchsstimmung\n'
p1078
sbag2
(g3
g4
NtRp1079
(dp1080
g7
g2
(g8
g4
NtRp1081
(dp1082
g11
g922
sbsg13
g2
(g14
g4
NtRp1083
(dp1084
g13
g17
((I2011
I6
I3
I0
I0
I0
I4
I154
I-1
t(dtRp1085
sbsg19
S''
sg20
g22
sg29
S'Radioclash\n'
p1086
sbag2
(g3
g4
NtRp1087
(dp1088
g7
g2
(g8
g4
NtRp1089
(dp1090
g11
g922
sbsg13
g2
(g14
g4
NtRp1091
(dp1092
g13
g17
((I2011
I6
I3
I0
I0
I0
I4
I154
I-1
t(dtRp1093
sbsg19
S''
sg20
g22
sg29
S'Requiem for a dream Soundtrack\n'
p1094
sbag2
(g3
g4
NtRp1095
(dp1096
g7
g2
(g8
g4
NtRp1097
(dp1098
g11
g922
sbsg13
g2
(g14
g4
NtRp1099
(dp1100
g13
g17
((I2011
I6
I3
I0
I0
I0
I4
I154
I-1
t(dtRp1101
sbsg19
S''
sg20
g22
sg29
S'Rhythm Monks\n'
p1102
sbag2
(g3
g4
NtRp1103
(dp1104
g7
g2
(g8
g4
NtRp1105
(dp1106
g11
g922
sbsg13
g2
(g14
g4
NtRp1107
(dp1108
g13
g17
((I2011
I6
I3
I0
I0
I0
I4
I154
I-1
t(dtRp1109
sbsg19
S''
sg20
g22
sg29
S'Shadows von Au Revoir Simone\n'
p1110
sbag2
(g3
g4
NtRp1111
(dp1112
g7
g2
(g8
g4
NtRp1113
(dp1114
g11
g922
sbsg13
g2
(g14
g4
NtRp1115
(dp1116
g13
g17
((I2011
I6
I3
I0
I0
I0
I4
I154
I-1
t(dtRp1117
sbsg19
S''
sg20
g22
sg29
S'Snatch Soundtrack\n'
p1118
sbag2
(g3
g4
NtRp1119
(dp1120
g7
g2
(g8
g4
NtRp1121
(dp1122
g11
g922
sbsg13
g2
(g14
g4
NtRp1123
(dp1124
g13
g17
((I2011
I6
I3
I0
I0
I0
I4
I154
I-1
t(dtRp1125
sbsg19
S''
sg20
g22
sg29
S'Soap and Skin\n'
p1126
sbag2
(g3
g4
NtRp1127
(dp1128
g7
g2
(g8
g4
NtRp1129
(dp1130
g11
g922
sbsg13
g2
(g14
g4
NtRp1131
(dp1132
g13
g17
((I2011
I6
I3
I0
I0
I0
I4
I154
I-1
t(dtRp1133
sbsg19
S''
sg20
g22
sg29
S'Solaris Soundtrack wieder besorgen\n'
p1134
sbag2
(g3
g4
NtRp1135
(dp1136
g7
g2
(g8
g4
NtRp1137
(dp1138
g11
g922
sbsg13
g2
(g14
g4
NtRp1139
(dp1140
g13
g17
((I2011
I6
I3
I0
I0
I0
I4
I154
I-1
t(dtRp1141
sbsg19
S''
sg20
g22
sg29
S'Spoon\n'
p1142
sbag2
(g3
g4
NtRp1143
(dp1144
g7
g2
(g8
g4
NtRp1145
(dp1146
g11
g922
sbsg13
g2
(g14
g4
NtRp1147
(dp1148
g13
g17
((I2011
I6
I3
I0
I0
I0
I4
I154
I-1
t(dtRp1149
sbsg19
S''
sg20
g22
sg29
S'Staggered And Torn von Slut\n'
p1150
sbag2
(g3
g4
NtRp1151
(dp1152
g7
g2
(g8
g4
NtRp1153
(dp1154
g11
g922
sbsg13
g2
(g14
g4
NtRp1155
(dp1156
g13
g17
((I2011
I6
I3
I0
I0
I0
I4
I154
I-1
t(dtRp1157
sbsg19
S''
sg20
g22
sg29
S'Sugar von The Wooden Birds\n'
p1158
sbag2
(g3
g4
NtRp1159
(dp1160
g7
g2
(g8
g4
NtRp1161
(dp1162
g11
g922
sbsg13
g2
(g14
g4
NtRp1163
(dp1164
g13
g17
((I2011
I6
I3
I0
I0
I0
I4
I154
I-1
t(dtRp1165
sbsg19
S''
sg20
g22
sg29
S'Thievery Corporation: Radio Retaliation\n'
p1166
sbag2
(g3
g4
NtRp1167
(dp1168
g7
g2
(g8
g4
NtRp1169
(dp1170
g11
g922
sbsg13
g2
(g14
g4
NtRp1171
(dp1172
g13
g17
((I2011
I6
I3
I0
I0
I0
I4
I154
I-1
t(dtRp1173
sbsg19
S''
sg20
g22
sg29
S'This Love von Younghearts\n'
p1174
sbag2
(g3
g4
NtRp1175
(dp1176
g7
g2
(g8
g4
NtRp1177
(dp1178
g11
g922
sbsg13
g2
(g14
g4
NtRp1179
(dp1180
g13
g17
((I2011
I6
I3
I0
I0
I0
I4
I154
I-1
t(dtRp1181
sbsg19
S''
sg20
g22
sg29
S'Tim Spencer\n'
p1182
sbag2
(g3
g4
NtRp1183
(dp1184
g7
g2
(g8
g4
NtRp1185
(dp1186
g11
g922
sbsg13
g2
(g14
g4
NtRp1187
(dp1188
g13
g17
((I2011
I6
I3
I0
I0
I0
I4
I154
I-1
t(dtRp1189
sbsg19
S''
sg20
g22
sg29
S'To Lose My Life von White Lies\n'
p1190
sbag2
(g3
g4
NtRp1191
(dp1192
g7
g2
(g8
g4
NtRp1193
(dp1194
g11
g922
sbsg13
g2
(g14
g4
NtRp1195
(dp1196
g13
g17
((I2011
I6
I3
I0
I0
I0
I4
I154
I-1
t(dtRp1197
sbsg19
S''
sg20
g22
sg29
S'Was mit Harfen besorgen\n'
p1198
sbag2
(g3
g4
NtRp1199
(dp1200
g7
g2
(g8
g4
NtRp1201
(dp1202
g11
g922
sbsg13
g2
(g14
g4
NtRp1203
(dp1204
g13
g17
((I2011
I6
I3
I0
I0
I0
I4
I154
I-1
t(dtRp1205
sbsg19
S''
sg20
g22
sg29
S'Weekly Review Playlist erstellen\n'
p1206
sbag2
(g3
g4
NtRp1207
(dp1208
g7
g2
(g8
g4
NtRp1209
(dp1210
g11
g922
sbsg13
g2
(g14
g4
NtRp1211
(dp1212
g13
g17
((I2011
I6
I3
I0
I0
I0
I4
I154
I-1
t(dtRp1213
sbsg19
S''
sg20
g22
sg29
S'Www.bulldogs.dj (myspace.com/dirtybulldogs)\n'
p1214
sbag2
(g3
g4
NtRp1215
(dp1216
g7
g2
(g8
g4
NtRp1217
(dp1218
g11
g922
sbsg13
g2
(g14
g4
NtRp1219
(dp1220
g13
g17
((I2011
I6
I3
I0
I0
I0
I4
I154
I-1
t(dtRp1221
sbsg19
S''
sg20
g22
sg29
S'\xe2\x80\x9eIf you want to be free\xe2\x80\x9c\n'
p1222
sbag2
(g3
g4
NtRp1223
(dp1224
g7
g2
(g8
g4
NtRp1225
(dp1226
g11
g922
sbsg13
g2
(g14
g4
NtRp1227
(dp1228
g13
g17
((I2011
I6
I3
I0
I0
I0
I4
I154
I-1
t(dtRp1229
sbsg19
S''
sg20
g22
sg29
S'\xe2\x80\x9eSuch great Heights\xe2\x80\x9c Coversong besorgen\n'
p1230
sbag2
(g3
g4
NtRp1231
(dp1232
g7
g2
(g8
g4
NtRp1233
(dp1234
g11
S'Politisches'
p1235
sbsg13
g2
(g14
g4
NtRp1236
(dp1237
g13
g17
((I2011
I6
I3
I0
I0
I0
I4
I154
I-1
t(dtRp1238
sbsg19
S''
sg20
g22
sg29
S'Adbusting anfangen\n'
p1239
sbag2
(g3
g4
NtRp1240
(dp1241
g7
g2
(g8
g4
NtRp1242
(dp1243
g11
g1235
sbsg13
g2
(g14
g4
NtRp1244
(dp1245
g13
g17
((I2011
I6
I3
I0
I0
I0
I4
I154
I-1
t(dtRp1246
sbsg19
S''
sg20
g22
sg29
S'Facilitation AG gr\xc3\xbcnden\n'
p1247
sbag2
(g3
g4
NtRp1248
(dp1249
g7
g2
(g8
g4
NtRp1250
(dp1251
g11
g1235
sbsg13
g2
(g14
g4
NtRp1252
(dp1253
g13
g17
((I2012
I9
I10
I0
I0
I0
I0
I254
I-1
t(dtRp1254
sbsg19
S''
sg20
g22
sg29
S'Freie Schule gr\xc3\xbcnden\n'
p1255
sbag2
(g3
g4
NtRp1256
(dp1257
g7
g2
(g8
g4
NtRp1258
(dp1259
g11
g1235
sbsg13
g2
(g14
g4
NtRp1260
(dp1261
g13
g17
((I2011
I5
I9
I0
I0
I0
I0
I129
I-1
t(dtRp1262
sbsg19
S''
sg20
g22
sg29
S'Literatur zu freier P\xc3\xa4dagogik\n'
p1263
sbag2
(g3
g4
NtRp1264
(dp1265
g7
g2
(g8
g4
NtRp1266
(dp1267
g11
g1235
sbsg13
g2
(g14
g4
NtRp1268
(dp1269
g13
g17
((I2011
I6
I3
I0
I0
I0
I4
I154
I-1
t(dtRp1270
sbsg19
S'Literarisch zum motivieren'
p1271
sg20
g22
sg29
S'Protesterfolgsgeschichte schreiben\n'
p1272
sbag2
(g3
g4
NtRp1273
(dp1274
g7
g2
(g8
g4
NtRp1275
(dp1276
g11
g1235
sbsg13
g2
(g14
g4
NtRp1277
(dp1278
g13
g17
((I2012
I4
I26
I0
I0
I0
I3
I117
I-1
t(dtRp1279
sbsg19
S''
sg20
g22
sg29
S'Samba-Workshop-Anleitung fertigstellen\n'
p1280
sbag2
(g3
g4
NtRp1281
(dp1282
g7
g2
(g8
g4
NtRp1283
(dp1284
g11
g1235
sbsg13
g2
(g14
g4
NtRp1285
(dp1286
g13
g17
((I2011
I6
I26
I0
I0
I0
I6
I177
I-1
t(dtRp1287
sbsg19
S''
sg20
g22
sg29
S'Speech-Hintergrund f\xc3\xbcr Fulminate fertigstellen\n'
p1288
sbag2
(g3
g4
NtRp1289
(dp1290
g7
g2
(g8
g4
NtRp1291
(dp1292
g11
g1235
sbsg13
g2
(g14
g4
NtRp1293
(dp1294
g13
g17
((I2011
I9
I11
I0
I0
I0
I6
I254
I-1
t(dtRp1295
sbsg19
S''
sg20
g22
sg29
S'Stadt \xc3\xbcbernehmen\n'
p1296
sbag2
(g3
g4
NtRp1297
(dp1298
g7
g2
(g8
g4
NtRp1299
(dp1300
g11
g1235
sbsg13
g2
(g14
g4
NtRp1301
(dp1302
g13
g17
((I2011
I5
I11
I0
I0
I0
I2
I131
I-1
t(dtRp1303
sbsg19
S''
sg20
g22
sg29
S'Utopien, wie Stadtleben sein soll, wie sich U-Bahn anf\xc3\xbchlt, wie Leute miteinander reden als Geschichten aufschreiben\n'
p1304
sbag2
(g3
g4
NtRp1305
(dp1306
g7
g2
(g8
g4
NtRp1307
(dp1308
g11
g1235
sbsg13
g2
(g14
g4
NtRp1309
(dp1310
g13
g17
((I2011
I6
I3
I0
I0
I0
I4
I154
I-1
t(dtRp1311
sbsg19
S''
sg20
g22
sg29
S'Was ist \xc3\xbcberhaupt das Kleinfamilienmodell? Wo f\xc3\xa4ngt das an und wo h\xc3\xb6rt das auf? Und was genau ist daran schlimm?\n'
p1312
sbag2
(g3
g4
NtRp1313
(dp1314
g7
g2
(g8
g4
NtRp1315
(dp1316
g11
g1235
sbsg13
g2
(g14
g4
NtRp1317
(dp1318
g13
g17
((I2011
I5
I11
I0
I0
I0
I2
I131
I-1
t(dtRp1319
sbsg19
S''
sg20
g22
sg29
S'Zu mir passende Politgruppe finden (Beatricks?)\n'
p1320
sbag2
(g3
g4
NtRp1321
(dp1322
g7
g2
(g8
g4
NtRp1323
(dp1324
g11
S'Psychische Hygiene'
p1325
sbsg13
g2
(g14
g4
NtRp1326
(dp1327
g13
g17
((I2011
I5
I11
I0
I0
I0
I2
I131
I-1
t(dtRp1328
sbsg19
S''
sg20
g22
sg29
S'Buch zum inneren Kind besorgen\n'
p1329
sbag2
(g3
g4
NtRp1330
(dp1331
g7
g2
(g8
g4
NtRp1332
(dp1333
g11
g1325
sbsg13
g2
(g14
g4
NtRp1334
(dp1335
g13
g17
((I2011
I5
I15
I0
I0
I0
I6
I135
I-1
t(dtRp1336
sbsg19
S''
sg20
g22
sg29
S'\xc3\x9cber Erinnerungsarbeit recherchieren'
p1337
sbag2
(g3
g4
NtRp1338
(dp1339
g7
g2
(g8
g4
NtRp1340
(dp1341
g11
g1325
sbsg13
g2
(g14
g4
NtRp1342
(dp1343
g13
g17
((I2011
I7
I8
I0
I0
I0
I4
I189
I-1
t(dtRp1344
sbsg19
S''
sg20
g22
sg29
S'Freundschaften und Beziehungen konkret definieren, wie ich sie f\xc3\xbchren will\n'
p1345
sbag2
(g3
g4
NtRp1346
(dp1347
g7
g2
(g8
g4
NtRp1348
(dp1349
g11
g1325
sbsg13
g2
(g14
g4
NtRp1350
(dp1351
g13
g17
((I2011
I5
I9
I0
I0
I0
I0
I129
I-1
t(dtRp1352
sbsg19
S''
sg20
g22
sg29
S'Geschichten weiterschreiben\n'
p1353
sbag2
(g3
g4
NtRp1354
(dp1355
g7
g2
(g8
g4
NtRp1356
(dp1357
g11
g1325
sbsg13
g2
(g14
g4
NtRp1358
(dp1359
g13
g17
((I2011
I5
I9
I0
I0
I0
I0
I129
I-1
t(dtRp1360
sbsg19
S''
sg20
g22
sg29
S'Geschichten wie toll/cool ich in der Zukunft sein werde und was ich erleben werde aufschreiben\n'
p1361
sbag2
(g3
g4
NtRp1362
(dp1363
g7
g2
(g8
g4
NtRp1364
(dp1365
g11
g1325
sbsg13
g2
(g14
g4
NtRp1366
(dp1367
g13
g17
((I2011
I5
I9
I0
I0
I0
I0
I129
I-1
t(dtRp1368
sbsg19
S''
sg20
g22
sg29
S'Geschichte schreiben zu: Ich renne schneller als der Bus (Mahnwachenzeit[siehe Tagebuch])\n'
p1369
sbag2
(g3
g4
NtRp1370
(dp1371
g7
g2
(g8
g4
NtRp1372
(dp1373
g11
g1325
sbsg13
g2
(g14
g4
NtRp1374
(dp1375
g13
g17
((I2011
I5
I9
I0
I0
I0
I0
I129
I-1
t(dtRp1376
sbsg19
S''
sg20
g22
sg29
S'Lebensanleitungsschild malen\n'
p1377
sbag2
(g3
g4
NtRp1378
(dp1379
g7
g2
(g8
g4
NtRp1380
(dp1381
g11
g1325
sbsg13
g2
(g14
g4
NtRp1382
(dp1383
g13
g17
((I2011
I5
I9
I0
I0
I0
I0
I129
I-1
t(dtRp1384
sbsg19
S''
sg20
g22
sg29
S'Liebeskummer-Checklist erstellen\n'
p1385
sbag2
(g3
g4
NtRp1386
(dp1387
g7
g2
(g8
g4
NtRp1388
(dp1389
g11
g1325
sbsg13
g2
(g14
g4
NtRp1390
(dp1391
g13
g17
((I2011
I5
I9
I0
I0
I0
I0
I129
I-1
t(dtRp1392
sbsg19
S''
sg20
g22
sg29
S'Mich mit Narzismus auseinandersetzen\n'
p1393
sbag2
(g3
g4
NtRp1394
(dp1395
g7
g2
(g8
g4
NtRp1396
(dp1397
g11
g1325
sbsg13
g2
(g14
g4
NtRp1398
(dp1399
g13
g17
((I2011
I5
I9
I0
I0
I0
I0
I129
I-1
t(dtRp1400
sbsg19
S''
sg20
g22
sg29
S'mit INTP-DingsCharakterisierung auseinandersetzen\n'
p1401
sbag2
(g3
g4
NtRp1402
(dp1403
g7
g2
(g8
g4
NtRp1404
(dp1405
g11
g1325
sbsg13
g2
(g14
g4
NtRp1406
(dp1407
g13
g17
((I2011
I6
I8
I0
I0
I0
I2
I159
I-1
t(dtRp1408
sbsg19
S''
sg20
g22
sg29
S'Poesie-Box und Zeug ordnen\n'
p1409
sbag2
(g3
g4
NtRp1410
(dp1411
g7
g2
(g8
g4
NtRp1412
(dp1413
g11
g1325
sbsg13
g2
(g14
g4
NtRp1414
(dp1415
g13
g17
((I2011
I6
I8
I0
I0
I0
I2
I159
I-1
t(dtRp1416
sbsg19
S''
sg20
g22
sg29
S'Prosa Geschichten schreiben, um meine Vergangenheit positiv umzudeuten\n'
p1417
sbag2
(g3
g4
NtRp1418
(dp1419
g7
g2
(g8
g4
NtRp1420
(dp1421
g11
g1325
sbsg13
g2
(g14
g4
NtRp1422
(dp1423
g13
g17
((I2011
I6
I8
I0
I0
I0
I2
I159
I-1
t(dtRp1424
sbsg19
S''
sg20
g22
sg29
S'Pseudo wissenschaftlichen Artikel zu Gl\xc3\xbcck schreiben\n'
p1425
sbag2
(g3
g4
NtRp1426
(dp1427
g7
g2
(g8
g4
NtRp1428
(dp1429
g11
g1325
sbsg13
g2
(g14
g4
NtRp1430
(dp1431
g13
g17
((I2011
I5
I15
I0
I0
I0
I6
I135
I-1
t(dtRp1432
sbsg19
S''
sg20
g22
sg29
S'Selbstbild ausformulieren (Womit will ich mich schm\xc3\xbccken [Selbstbild])\n'
p1433
sbag2
(g3
g4
NtRp1434
(dp1435
g7
g2
(g8
g4
NtRp1436
(dp1437
g11
g1325
sbsg13
g2
(g14
g4
NtRp1438
(dp1439
g13
g17
((I2011
I5
I15
I0
I0
I0
I6
I135
I-1
t(dtRp1440
sbsg19
S''
sg20
g22
sg29
S'Therapiefragb\xc3\xb6gen bearbeiten (Docs/Psychische Hygiene/Therapie/16072009)\n'
p1441
sbag2
(g3
g4
NtRp1442
(dp1443
g7
g2
(g8
g4
NtRp1444
(dp1445
g11
g1325
sbsg13
g2
(g14
g4
NtRp1446
(dp1447
g13
g17
((I2011
I5
I15
I0
I0
I0
I6
I135
I-1
t(dtRp1448
sbsg19
S''
sg20
g22
sg29
S'vision\xc3\xa4re Prosa Geschichten zu meiner perfekten Zukunft schreiben\n'
p1449
sbag2
(g3
g4
NtRp1450
(dp1451
g7
g2
(g8
g4
NtRp1452
(dp1453
g11
g1325
sbsg13
g2
(g14
g4
NtRp1454
(dp1455
g13
g17
((I2011
I5
I31
I0
I0
I0
I1
I151
I-1
t(dtRp1456
sbsg19
S''
sg20
g22
sg29
S'Zu Inga arbeiten\n'
p1457
sbag2
(g3
g4
NtRp1458
(dp1459
g7
g2
(g8
g4
NtRp1460
(dp1461
g11
S'Rechtliches/B\xc3\xbcrokratisches'
p1462
sbsg13
g2
(g14
g4
NtRp1463
(dp1464
g13
g17
((I2011
I5
I15
I0
I0
I0
I6
I135
I-1
t(dtRp1465
sbsg19
S''
sg20
g22
sg29
S'Kirchenaustritt organisieren\n'
p1466
sbag2
(g3
g4
NtRp1467
(dp1468
g7
g2
(g8
g4
NtRp1469
(dp1470
g11
S'Reisen'
p1471
sbsg13
g2
(g14
g4
NtRp1472
(dp1473
g13
g17
((I2011
I5
I9
I0
I0
I0
I0
I129
I-1
t(dtRp1474
sbsg19
S''
sg20
g22
sg29
S'Indonesien\n'
p1475
sbag2
(g3
g4
NtRp1476
(dp1477
g7
g2
(g8
g4
NtRp1478
(dp1479
g11
g1471
sbsg13
g2
(g14
g4
NtRp1480
(dp1481
g13
g17
((I2011
I5
I9
I0
I0
I0
I0
I129
I-1
t(dtRp1482
sbsg19
S''
sg20
g22
sg29
S'Irland\n'
p1483
sbag2
(g3
g4
NtRp1484
(dp1485
g7
g2
(g8
g4
NtRp1486
(dp1487
g11
g1471
sbsg13
g2
(g14
g4
NtRp1488
(dp1489
g13
g17
((I2011
I5
I9
I0
I0
I0
I0
I129
I-1
t(dtRp1490
sbsg19
S''
sg20
g22
sg29
S'Island\n'
p1491
sbag2
(g3
g4
NtRp1492
(dp1493
g7
g2
(g8
g4
NtRp1494
(dp1495
g11
g1471
sbsg13
g2
(g14
g4
NtRp1496
(dp1497
g13
g17
((I2011
I5
I9
I0
I0
I0
I0
I129
I-1
t(dtRp1498
sbsg19
S''
sg20
g22
sg29
S'Japan\n'
p1499
sbag2
(g3
g4
NtRp1500
(dp1501
g7
g2
(g8
g4
NtRp1502
(dp1503
g11
g1471
sbsg13
g2
(g14
g4
NtRp1504
(dp1505
g13
g17
((I2011
I5
I9
I0
I0
I0
I0
I129
I-1
t(dtRp1506
sbsg19
S''
sg20
g22
sg29
S'Murmansk besuchen\n'
p1507
sbag2
(g3
g4
NtRp1508
(dp1509
g7
g2
(g8
g4
NtRp1510
(dp1511
g11
g1471
sbsg13
g2
(g14
g4
NtRp1512
(dp1513
g13
g17
((I2012
I9
I10
I0
I0
I0
I0
I254
I-1
t(dtRp1514
sbsg19
S''
sg20
g22
sg29
S'Nach St. Helena ziehen?\n'
p1515
sbag2
(g3
g4
NtRp1516
(dp1517
g7
g2
(g8
g4
NtRp1518
(dp1519
g11
g1471
sbsg13
g2
(g14
g4
NtRp1520
(dp1521
g13
g17
((I2011
I9
I11
I0
I0
I0
I6
I254
I-1
t(dtRp1522
sbsg19
S''
sg20
g22
sg29
S'USA\n'
p1523
sbag2
(g3
g4
NtRp1524
(dp1525
g7
g2
(g8
g4
NtRp1526
(dp1527
g11
S'Selbstorganistation/Productivity'
p1528
sbsg13
g2
(g14
g4
NtRp1529
(dp1530
g13
g17
((I2011
I5
I15
I0
I0
I0
I6
I135
I-1
t(dtRp1531
sbsg19
S''
sg20
g22
sg29
S'Blog (Methods for Merriness)\n'
p1532
sbag2
(g3
g4
NtRp1533
(dp1534
g7
g2
(g8
g4
NtRp1535
(dp1536
g11
g1528
sbsg13
g2
(g14
g4
NtRp1537
(dp1538
g13
g17
((I2011
I5
I10
I0
I0
I0
I1
I130
I-1
t(dtRp1539
sbsg19
S''
sg20
g22
sg29
S'Outstanding presenter werden (vergleiche GTD Company Career Requirements)\n'
p1540
sbag2
(g3
g4
NtRp1541
(dp1542
g7
g2
(g8
g4
NtRp1543
(dp1544
g11
g1528
sbsg13
g2
(g14
g4
NtRp1545
(dp1546
g13
g17
((I2011
I5
I10
I0
I0
I0
I1
I130
I-1
t(dtRp1547
sbsg19
S''
sg20
g22
sg29
S'Peg Words auf Karten schreiben und lernen\n'
p1548
sbag2
(g3
g4
NtRp1549
(dp1550
g7
g2
(g8
g4
NtRp1551
(dp1552
g11
g1528
sbsg13
g2
(g14
g4
NtRp1553
(dp1554
g13
g17
((I2011
I5
I15
I0
I0
I0
I6
I135
I-1
t(dtRp1555
sbsg19
S''
sg20
g22
sg29
S'ProRead-KW-Mails nochmal durcharbeiten\n'
p1556
sbag2
(g3
g4
NtRp1557
(dp1558
g7
g2
(g8
g4
NtRp1559
(dp1560
g11
g1528
sbsg13
g2
(g14
g4
NtRp1561
(dp1562
g13
g17
((I2011
I5
I10
I0
I0
I0
I1
I130
I-1
t(dtRp1563
sbsg19
S''
sg20
g22
sg29
S'Text2Speech f\xc3\xbcr Websites -> MP3 -> unterwegs h\xc3\xb6ren\n'
p1564
sbag2
(g3
g4
NtRp1565
(dp1566
g7
g2
(g8
g4
NtRp1567
(dp1568
g11
g1528
sbsg13
g2
(g14
g4
NtRp1569
(dp1570
g13
g17
((I2011
I6
I7
I0
I0
I0
I1
I158
I-1
t(dtRp1571
sbsg19
S''
sg20
g22
sg29
S'Einladung f\xc3\xbcr gro\xc3\x9fen GTD Workshop formulieren an alle interessierten Freunde -> Doodle\n'
p1572
sbag2
(g3
g4
NtRp1573
(dp1574
g7
g2
(g8
g4
NtRp1575
(dp1576
g11
g1528
sbsg13
g2
(g14
g4
NtRp1577
(dp1578
g13
g17
((I2011
I5
I15
I0
I0
I0
I6
I135
I-1
t(dtRp1579
sbsg19
S''
sg20
g22
sg29
S'GTD-Stammtisch einrichten\n'
p1580
sbag2
(g3
g4
NtRp1581
(dp1582
g7
g2
(g8
g4
NtRp1583
(dp1584
g11
g1528
sbsg13
g2
(g14
g4
NtRp1585
(dp1586
g13
g17
((I2011
I5
I10
I0
I0
I0
I1
I130
I-1
t(dtRp1587
sbsg19
S''
sg20
g22
sg29
S'GTD-Wochenendseminar konzipieren\n'
p1588
sbag2
(g3
g4
NtRp1589
(dp1590
g7
g2
(g8
g4
NtRp1591
(dp1592
g11
g1528
sbsg13
g2
(g14
g4
NtRp1593
(dp1594
g13
g17
((I2011
I5
I15
I0
I0
I0
I6
I135
I-1
t(dtRp1595
sbsg19
S''
sg20
g22
sg29
S'GTD-Workbook durcharbeiten\n'
p1596
sbag2
(g3
g4
NtRp1597
(dp1598
g7
g2
(g8
g4
NtRp1599
(dp1600
g11
g1528
sbsg13
g2
(g14
g4
NtRp1601
(dp1602
g13
g17
((I2011
I5
I10
I0
I0
I0
I1
I130
I-1
t(dtRp1603
sbsg19
S''
sg20
g22
sg29
S'Demo Content f\xc3\xbcrs Processing ausdenken\n'
p1604
sbag2
(g3
g4
NtRp1605
(dp1606
g7
g2
(g8
g4
NtRp1607
(dp1608
g11
g1528
sbsg13
g2
(g14
g4
NtRp1609
(dp1610
g13
g17
((I2011
I5
I10
I0
I0
I0
I1
I130
I-1
t(dtRp1611
sbsg19
S''
sg20
g22
sg29
S'Project Planning Workshop (GTD-Style) entwerfen\n'
p1612
sbag2
(g3
g4
NtRp1613
(dp1614
g7
g2
(g8
g4
NtRp1615
(dp1616
g11
g1528
sbsg13
g2
(g14
g4
NtRp1617
(dp1618
g13
g17
((I2011
I5
I10
I0
I0
I0
I1
I130
I-1
t(dtRp1619
sbsg19
S''
sg20
g22
sg29
S'Project Plannung Workshop mit Philipp\n'
p1620
sbag2
(g3
g4
NtRp1621
(dp1622
g7
g2
(g8
g4
NtRp1623
(dp1624
g11
g1528
sbsg13
g2
(g14
g4
NtRp1625
(dp1626
g13
g17
((I2011
I5
I10
I0
I0
I0
I1
I130
I-1
t(dtRp1627
sbsg19
S''
sg20
g22
sg29
S'GfK-Workshop\n'
p1628
sbag2
(g3
g4
NtRp1629
(dp1630
g7
g2
(g8
g4
NtRp1631
(dp1632
g11
S'Schule reformieren'
p1633
sbsg13
g2
(g14
g4
NtRp1634
(dp1635
g13
g17
((I2011
I6
I9
I0
I0
I0
I3
I160
I-1
t(dtRp1636
sbsg19
S''
sg20
g22
sg29
S'Allen Leuten Memory-Techniken beibringen, um zu beweisen, dass das alles ist, was in der heutigen Schule gebraucht wird\n'
p1637
sbag2
(g3
g4
NtRp1638
(dp1639
g7
g2
(g8
g4
NtRp1640
(dp1641
g11
g1633
sbsg13
g2
(g14
g4
NtRp1642
(dp1643
g13
g17
((I2011
I6
I9
I0
I0
I0
I3
I160
I-1
t(dtRp1644
sbsg19
S''
sg20
g22
sg29
S'An der Schule Selbstmanagement-Kurse geben\n'
p1645
sbag2
(g3
g4
NtRp1646
(dp1647
g7
g2
(g8
g4
NtRp1648
(dp1649
g11
g1633
sbsg13
g2
(g14
g4
NtRp1650
(dp1651
g13
g17
((I2011
I6
I9
I0
I0
I0
I3
I160
I-1
t(dtRp1652
sbsg19
S''
sg20
g22
sg29
S'Freie Schule Leipzig googlen\n'
p1653
sbag2
(g3
g4
NtRp1654
(dp1655
g7
g2
(g8
g4
NtRp1656
(dp1657
g11
g1633
sbsg13
g2
(g14
g4
NtRp1658
(dp1659
g13
g17
((I2011
I6
I9
I0
I0
I0
I3
I160
I-1
t(dtRp1660
sbsg19
S''
sg20
g22
sg29
S'Kapitalismus-Song von Funny van Dannen im Unterricht behandeln\n'
p1661
sbag2
(g3
g4
NtRp1662
(dp1663
g7
g2
(g8
g4
NtRp1664
(dp1665
g11
g1633
sbsg13
g2
(g14
g4
NtRp1666
(dp1667
g13
g17
((I2011
I6
I9
I0
I0
I0
I3
I160
I-1
t(dtRp1668
sbsg19
S''
sg20
g22
sg29
S'Krisendokus (wie z.B. Home) im Unterricht zeigen\n'
p1669
sbag2
(g3
g4
NtRp1670
(dp1671
g7
g2
(g8
g4
NtRp1672
(dp1673
g11
g1633
sbsg13
g2
(g14
g4
NtRp1674
(dp1675
g13
g17
((I2011
I6
I9
I0
I0
I0
I3
I160
I-1
t(dtRp1676
sbsg19
S''
sg20
g22
sg29
S'Mailingliste zu demokratischen Schulen suchen und abbonieren\n'
p1677
sbag2
(g3
g4
NtRp1678
(dp1679
g7
g2
(g8
g4
NtRp1680
(dp1681
g11
g1633
sbsg13
g2
(g14
g4
NtRp1682
(dp1683
g13
g17
((I2011
I6
I9
I0
I0
I0
I3
I160
I-1
t(dtRp1684
sbsg19
S''
sg20
g22
sg29
S'MRTs: "Ich hab keine Aufmerksamkeit" in der Schule benutzen\n'
p1685
sbag2
(g3
g4
NtRp1686
(dp1687
g7
g2
(g8
g4
NtRp1688
(dp1689
g11
g1633
sbsg13
g2
(g14
g4
NtRp1690
(dp1691
g13
g17
((I2011
I6
I9
I0
I0
I0
I3
I160
I-1
t(dtRp1692
sbsg19
S''
sg20
g22
sg29
S'Neue Schule Hamburg googlen\n'
p1693
sbag2
(g3
g4
NtRp1694
(dp1695
g7
g2
(g8
g4
NtRp1696
(dp1697
g11
g1633
sbsg13
g2
(g14
g4
NtRp1698
(dp1699
g13
g17
((I2011
I6
I9
I0
I0
I0
I3
I160
I-1
t(dtRp1700
sbsg19
S''
sg20
g22
sg29
S'Pers\xc3\xb6nlichkeiten von Sch\xc3\xbclerInnen aufschreiben.\n'
p1701
sbag2
(g3
g4
NtRp1702
(dp1703
g7
g2
(g8
g4
NtRp1704
(dp1705
g11
g1633
sbsg13
g2
(g14
g4
NtRp1706
(dp1707
g13
g17
((I2011
I5
I10
I0
I0
I0
I1
I130
I-1
t(dtRp1708
sbsg19
S''
sg20
g22
sg29
S'Ting Schule in Berlin googlen\n'
p1709
sbag2
(g3
g4
NtRp1710
(dp1711
g7
g2
(g8
g4
NtRp1712
(dp1713
g11
g1633
sbsg13
g2
(g14
g4
NtRp1714
(dp1715
g13
g17
((I2011
I6
I9
I0
I0
I0
I3
I160
I-1
t(dtRp1716
sbsg19
S''
sg20
g22
sg29
S'\xc3\xbcber demokratische Schulen in Israel informieren\n'
p1717
sbag2
(g3
g4
NtRp1718
(dp1719
g7
g2
(g8
g4
NtRp1720
(dp1721
g11
g1633
sbsg13
g2
(g14
g4
NtRp1722
(dp1723
g13
g17
((I2011
I6
I9
I0
I0
I0
I3
I160
I-1
t(dtRp1724
sbsg19
S''
sg20
g22
sg29
S'\xc3\xbcber EUDEC (mit K?, oder so \xc3\xa4hnlich), Treffen von demokratischen Schulen informieren\n'
p1725
sbag2
(g3
g4
NtRp1726
(dp1727
g7
g2
(g8
g4
NtRp1728
(dp1729
g11
g1633
sbsg13
g2
(g14
g4
NtRp1730
(dp1731
g13
g17
((I2011
I6
I9
I0
I0
I0
I3
I160
I-1
t(dtRp1732
sbsg19
S''
sg20
g22
sg29
S'\xc3\xbcber externe Abschl\xc3\xbcsse in Deutschland informieren\n'
p1733
sbag2
(g3
g4
NtRp1734
(dp1735
g7
g2
(g8
g4
NtRp1736
(dp1737
g11
g1633
sbsg13
g2
(g14
g4
NtRp1738
(dp1739
g13
g17
((I2011
I6
I9
I0
I0
I0
I3
I160
I-1
t(dtRp1740
sbsg19
S''
sg20
g22
sg29
S'Www.lehrerforum.de Auschecken\n'
p1741
sbag2
(g3
g4
NtRp1742
(dp1743
g7
g2
(g8
g4
NtRp1744
(dp1745
g11
S'Sonstiges'
p1746
sbsg13
g2
(g14
g4
NtRp1747
(dp1748
g13
g17
((I2011
I6
I9
I0
I0
I0
I3
I160
I-1
t(dtRp1749
sbsg19
S''
sg20
g22
sg29
S'Bei einer Foodccop einsteigen (Barbara (FC R\xc3\xbctli), oder Franzi)\n'
p1750
sbag2
(g3
g4
NtRp1751
(dp1752
g7
g2
(g8
g4
NtRp1753
(dp1754
g11
g1746
sbsg13
g2
(g14
g4
NtRp1755
(dp1756
g13
g17
((I2011
I6
I9
I0
I0
I0
I3
I160
I-1
t(dtRp1757
sbsg19
S''
sg20
g22
sg29
S'Bei Peter Stage (Fahrradladen im Mehringhof) eine Beratung zum richtigen Sitzen auf dem Fahrrad machen)\n'
p1758
sbag2
(g3
g4
NtRp1759
(dp1760
g7
g2
(g8
g4
NtRp1761
(dp1762
g11
g1746
sbsg13
g2
(g14
g4
NtRp1763
(dp1764
g13
g17
((I2011
I6
I9
I0
I0
I0
I3
I160
I-1
t(dtRp1765
sbsg19
S''
sg20
g22
sg29
S'Eigentum in der Geschichte: Wann fing das an? Welche Grenzen gab es (bis) wann? Eigentum von Land, Wasser, Personen, ...\n'
p1766
sbag2
(g3
g4
NtRp1767
(dp1768
g7
g2
(g8
g4
NtRp1769
(dp1770
g11
g1746
sbsg13
g2
(g14
g4
NtRp1771
(dp1772
g13
g17
((I2011
I5
I31
I0
I0
I0
I1
I151
I-1
t(dtRp1773
sbsg19
S''
sg20
g22
sg29
S'einmal um den Flughafen Tempelhof joggen\n'
p1774
sbag2
(g3
g4
NtRp1775
(dp1776
g7
g2
(g8
g4
NtRp1777
(dp1778
g11
g1746
sbsg13
g2
(g14
g4
NtRp1779
(dp1780
S'date'
p1781
g17
((I2011
I5
I31
I0
I0
I0
I1
I151
I-1
t(dtRp1782
sbsg19
S''
sg20
g22
sg29
S'Fragen ob ich nen AT Kurs von meiner Krankenkasse bezahlt kriege'
p1783
sbag2
(g3
g4
NtRp1784
(dp1785
g7
g2
(g8
g4
NtRp1786
(dp1787
g11
g1746
sbsg13
g2
(g14
g4
NtRp1788
(dp1789
g13
g17
((I2012
I9
I11
I0
I0
I0
I1
I255
I-1
t(dtRp1790
sbsg19
S''
sg20
g22
sg29
S'HA-Checklist \xc3\xbcberarbeiten (siehe Docs /Hausarbeitencheckliste und Desktop/Checklists)\n'
p1791
sbag2
(g3
g4
NtRp1792
(dp1793
g7
g2
(g8
g4
NtRp1794
(dp1795
g11
g1746
sbsg13
g2
(g14
g4
NtRp1796
(dp1797
g13
g17
((I2011
I9
I12
I0
I0
I0
I0
I255
I-1
t(dtRp1798
sbsg19
S''
sg20
g22
sg29
S'Linksradikale Dance Revolution starten (zuerst DJ werden, gute Musik spielen und coole Leute tanzen lassen), damit ich auch irge\n'
p1799
sbag2
(g3
g4
NtRp1800
(dp1801
g7
g2
(g8
g4
NtRp1802
(dp1803
g11
g1746
sbsg13
g2
(g14
g4
NtRp1804
(dp1805
g13
g17
((I2011
I9
I12
I0
I0
I0
I0
I255
I-1
t(dtRp1806
sbsg19
S''
sg20
g22
sg29
S'Marathon laufen\n'
p1807
sbag2
(g3
g4
NtRp1808
(dp1809
g7
g2
(g8
g4
NtRp1810
(dp1811
g11
g1746
sbsg13
g2
(g14
g4
NtRp1812
(dp1813
g13
g17
((I2011
I6
I7
I0
I0
I0
I1
I158
I-1
t(dtRp1814
sbsg19
S''
sg20
g22
sg29
S'Mit Licht und Ausleuchtung experimentieren/was dar\xc3\xbcber herausfinden\n'
p1815
sbag2
(g3
g4
NtRp1816
(dp1817
g7
g2
(g8
g4
NtRp1818
(dp1819
g11
g1746
sbsg13
g2
(g14
g4
NtRp1820
(dp1821
g13
g17
((I2011
I5
I10
I0
I0
I0
I1
I130
I-1
t(dtRp1822
sbsg19
S''
sg20
g22
sg29
S'Peak-Oil-Fiction schreiben (Es gibt nur sehr wenige Menschen die profitieren, immer gr\xc3\xb6\xc3\x9fere Selektion, more serious conflicts, e\n'
p1823
sbag2
(g3
g4
NtRp1824
(dp1825
g7
g2
(g8
g4
NtRp1826
(dp1827
g11
g1746
sbsg13
g2
(g14
g4
NtRp1828
(dp1829
g13
g17
((I2011
I6
I9
I0
I0
I0
I3
I160
I-1
t(dtRp1830
sbsg19
S''
sg20
g22
sg29
S'Salon aufmachen (mit wenigen Leuten regelm\xc3\xa4\xc3\x9fig \xc3\xbcber Politik reden und Kulturveranstaltungen genie\xc3\x9fen)\n'
p1831
sbag2
(g3
g4
NtRp1832
(dp1833
g7
g2
(g8
g4
NtRp1834
(dp1835
g11
g1746
sbsg13
g2
(g14
g4
NtRp1836
(dp1837
g13
g17
((I2011
I6
I9
I0
I0
I0
I3
I160
I-1
t(dtRp1838
sbsg19
S''
sg20
g22
sg29
S'Sind monotheistische Religionen erfolgreicher, weil sie die Welt deutlicher in richtig und falsch einteilen?\n'
p1839
sbag2
(g3
g4
NtRp1840
(dp1841
g7
g2
(g8
g4
NtRp1842
(dp1843
g11
g1746
sbsg13
g2
(g14
g4
NtRp1844
(dp1845
g13
g17
((I2011
I5
I10
I0
I0
I0
I1
I130
I-1
t(dtRp1846
sbsg19
S''
sg20
g22
sg29
S'Teaching Assistant im Ausland werden\n'
p1847
sbag2
(g3
g4
NtRp1848
(dp1849
g7
g2
(g8
g4
NtRp1850
(dp1851
g11
g1746
sbsg13
g2
(g14
g4
NtRp1852
(dp1853
g13
g17
((I2011
I5
I10
I0
I0
I0
I1
I130
I-1
t(dtRp1854
sbsg19
S''
sg20
g22
sg29
S'\xc3\x9cber Auswandern nachdenken\n'
p1855
sbag2
(g3
g4
NtRp1856
(dp1857
g7
g2
(g8
g4
NtRp1858
(dp1859
g11
g1746
sbsg13
g2
(g14
g4
NtRp1860
(dp1861
g13
g17
((I2011
I6
I9
I0
I0
I0
I3
I160
I-1
t(dtRp1862
sbsg19
S''
sg20
g22
sg29
S'Wie geht und wie gut ist heiraten in D\xc3\xa4nemark?\n'
p1863
sbag2
(g3
g4
NtRp1864
(dp1865
g7
g2
(g8
g4
NtRp1866
(dp1867
g11
g1746
sbsg13
g2
(g14
g4
NtRp1868
(dp1869
g13
g17
((I2011
I6
I9
I0
I0
I0
I3
I160
I-1
t(dtRp1870
sbsg19
S''
sg20
g22
sg29
S'zum Urologen\n'
p1871
sbag2
(g3
g4
NtRp1872
(dp1873
g7
g2
(g8
g4
NtRp1874
(dp1875
g11
g1746
sbsg13
g2
(g14
g4
NtRp1876
(dp1877
g13
g17
((I2011
I6
I7
I0
I0
I0
I1
I158
I-1
t(dtRp1878
sbsg19
S''
sg20
g22
sg29
S'D&D 3.5 B\xc3\xbccher verkaufen\n'
p1879
sbag2
(g3
g4
NtRp1880
(dp1881
g7
g2
(g8
g4
NtRp1882
(dp1883
g11
g1746
sbsg13
g2
(g14
g4
NtRp1884
(dp1885
g13
g17
((I2011
I6
I7
I0
I0
I0
I1
I158
I-1
t(dtRp1886
sbsg19
S''
sg20
g22
sg29
S'Magic-Karten zu \xe2\x80\x9eder andere Spieleladen\xe2\x80\x9c bringen (bei Sophia in der N\xc3\xa4he(Danziger Str.), 10 Commons-> 1cent, 1 Unc. \xe2\x86\x92 2cent) verkaufen\n'
p1887
sbag2
(g3
g4
NtRp1888
(dp1889
g7
g2
(g8
g4
NtRp1890
(dp1891
g11
g1746
sbsg13
g2
(g14
g4
NtRp1892
(dp1893
g13
g17
((I2011
I5
I15
I0
I0
I0
I6
I135
I-1
t(dtRp1894
sbsg19
S''
sg20
g22
sg29
S'SR-B\xc3\xbccherbeschreibungen (bedrohliche 6te Welt) verkaufen\n'
p1895
sbag2
(g3
g4
NtRp1896
(dp1897
g7
g2
(g8
g4
NtRp1898
(dp1899
g11
S'Spiele'
p1900
sbsg13
g2
(g14
g4
NtRp1901
(dp1902
g13
g17
((I2011
I6
I9
I0
I0
I0
I3
I160
I-1
t(dtRp1903
sbsg19
S''
sg20
g22
sg29
S'Call To Power spielen\n'
p1904
sbag2
(g3
g4
NtRp1905
(dp1906
g7
g2
(g8
g4
NtRp1907
(dp1908
g11
g1900
sbsg13
g2
(g14
g4
NtRp1909
(dp1910
g13
g17
((I2011
I6
I9
I0
I0
I0
I3
I160
I-1
t(dtRp1911
sbsg19
S''
sg20
g22
sg29
S'D&D lernen\n'
p1912
sbag2
(g3
g4
NtRp1913
(dp1914
g7
g2
(g8
g4
NtRp1915
(dp1916
g11
g1900
sbsg13
g2
(g14
g4
NtRp1917
(dp1918
g13
g17
((I2011
I6
I9
I0
I0
I0
I3
I160
I-1
t(dtRp1919
sbsg19
S''
sg20
g22
sg29
S'Dorfsim weiterentwickeln\n'
p1920
sbag2
(g3
g4
NtRp1921
(dp1922
g7
g2
(g8
g4
NtRp1923
(dp1924
g11
g1900
sbsg13
g2
(g14
g4
NtRp1925
(dp1926
g13
g17
((I2011
I6
I9
I0
I0
I0
I3
I160
I-1
t(dtRp1927
sbsg19
S''
sg20
g22
sg29
S'KOTOR 1 nochmal durchspielen\n'
p1928
sbag2
(g3
g4
NtRp1929
(dp1930
g7
g2
(g8
g4
NtRp1931
(dp1932
g11
g1900
sbsg13
g2
(g14
g4
NtRp1933
(dp1934
g13
g17
((I2011
I6
I9
I0
I0
I0
I3
I160
I-1
t(dtRp1935
sbsg19
S''
sg20
g22
sg29
S'KOTOR 2 nochmal durchspielen\n'
p1936
sbag2
(g3
g4
NtRp1937
(dp1938
g7
g2
(g8
g4
NtRp1939
(dp1940
g11
g1900
sbsg13
g2
(g14
g4
NtRp1941
(dp1942
g13
g17
((I2011
I6
I9
I0
I0
I0
I3
I160
I-1
t(dtRp1943
sbsg19
S''
sg20
g22
sg29
S'M.A.X.\n'
p1944
sbag2
(g3
g4
NtRp1945
(dp1946
g7
g2
(g8
g4
NtRp1947
(dp1948
g11
g1900
sbsg13
g2
(g14
g4
NtRp1949
(dp1950
g13
g17
((I2011
I6
I9
I0
I0
I0
I3
I160
I-1
t(dtRp1951
sbsg19
S''
sg20
g22
sg29
S'Oblivion \xe2\x80\x9edurchspielen\xe2\x80\x9c\n'
p1952
sbag2
(g3
g4
NtRp1953
(dp1954
g7
g2
(g8
g4
NtRp1955
(dp1956
g11
g1900
sbsg13
g2
(g14
g4
NtRp1957
(dp1958
g13
g17
((I2011
I6
I9
I0
I0
I0
I3
I160
I-1
t(dtRp1959
sbsg19
S''
sg20
g22
sg29
S'Starcraft 2 durchspielen\n'
p1960
sbag2
(g3
g4
NtRp1961
(dp1962
g7
g2
(g8
g4
NtRp1963
(dp1964
g11
g1900
sbsg13
g2
(g14
g4
NtRp1965
(dp1966
g13
g17
((I2011
I6
I9
I0
I0
I0
I3
I160
I-1
t(dtRp1967
sbsg19
S''
sg20
g22
sg29
S'Tribal Trouble 2\n'
p1968
sbag2
(g3
g4
NtRp1969
(dp1970
g7
g2
(g8
g4
NtRp1971
(dp1972
g11
S'Studium'
p1973
sbsg13
g2
(g14
g4
NtRp1974
(dp1975
g13
g17
((I2011
I5
I10
I0
I0
I0
I1
I130
I-1
t(dtRp1976
sbsg19
S''
sg20
g22
sg29
S'Geschichts\xc3\xbcberblick finden\n'
p1977
sbag2
(g3
g4
NtRp1978
(dp1979
g7
g2
(g8
g4
NtRp1980
(dp1981
g11
g1973
sbsg13
g2
(g14
g4
NtRp1982
(dp1983
g13
g17
((I2011
I5
I10
I0
I0
I0
I1
I130
I-1
t(dtRp1984
sbsg19
S''
sg20
g22
sg29
S'\xc3\xbcbers Referendariat informieren\n'
p1985
sbag2
(g3
g4
NtRp1986
(dp1987
g7
g2
(g8
g4
NtRp1988
(dp1989
g11
S'Theorien/Themen/Look Into'
p1990
sbsg13
g2
(g14
g4
NtRp1991
(dp1992
g13
g17
((I2011
I6
I9
I0
I0
I0
I3
I160
I-1
t(dtRp1993
sbsg19
S''
sg20
g22
sg29
S'Diese Verarsche von Naturwissenschaftlern mit ner absurden Theorie wiederfinden und durchlesen\n'
p1994
sbag2
(g3
g4
NtRp1995
(dp1996
g7
g2
(g8
g4
NtRp1997
(dp1998
g11
g1990
sbsg13
g2
(g14
g4
NtRp1999
(dp2000
g13
g17
((I2011
I6
I9
I0
I0
I0
I3
I160
I-1
t(dtRp2001
sbsg19
S''
sg20
g22
sg29
S'Die Zeit (Wochenzeitung) lesen\n'
p2002
sbag2
(g3
g4
NtRp2003
(dp2004
g7
g2
(g8
g4
NtRp2005
(dp2006
g11
g1990
sbsg13
g2
(g14
g4
NtRp2007
(dp2008
g13
g17
((I2011
I6
I9
I0
I0
I0
I3
I160
I-1
t(dtRp2009
sbsg19
S''
sg20
g22
sg29
S'Englische Plenumskultur\n'
p2010
sbag2
(g3
g4
NtRp2011
(dp2012
g7
g2
(g8
g4
NtRp2013
(dp2014
g11
g1990
sbsg13
g2
(g14
g4
NtRp2015
(dp2016
g13
g17
((I2011
I6
I9
I0
I0
I0
I3
I160
I-1
t(dtRp2017
sbsg19
S''
sg20
g22
sg29
S'Gamestudies\n'
p2018
sbag2
(g3
g4
NtRp2019
(dp2020
g7
g2
(g8
g4
NtRp2021
(dp2022
g11
g1990
sbsg13
g2
(g14
g4
NtRp2023
(dp2024
g13
g17
((I2011
I6
I9
I0
I0
I0
I3
I160
I-1
t(dtRp2025
sbsg19
S''
sg20
g22
sg29
S'Gebhardt einen Lerntyptest machen lassen\n'
p2026
sbag2
(g3
g4
NtRp2027
(dp2028
g7
g2
(g8
g4
NtRp2029
(dp2030
g11
g1990
sbsg13
g2
(g14
g4
NtRp2031
(dp2032
g13
g17
((I2011
I5
I10
I0
I0
I0
I1
I130
I-1
t(dtRp2033
sbsg19
S''
sg20
g22
sg29
S'Kulturprogramm von Schulen in der N\xc3\xa4he angucken\n'
p2034
sbag2
(g3
g4
NtRp2035
(dp2036
g7
g2
(g8
g4
NtRp2037
(dp2038
g11
g1990
sbsg13
g2
(g14
g4
NtRp2039
(dp2040
g13
g17
((I2011
I6
I7
I0
I0
I0
I1
I158
I-1
t(dtRp2041
sbsg19
S''
sg20
g22
sg29
S'Mich mehr mit autogenem Training befassen\n'
p2042
sbag2
(g3
g4
NtRp2043
(dp2044
g7
g2
(g8
g4
NtRp2045
(dp2046
g11
g1990
sbsg13
g2
(g14
g4
NtRp2047
(dp2048
g13
g17
((I2011
I5
I10
I0
I0
I0
I1
I130
I-1
t(dtRp2049
sbsg19
S''
sg20
g22
sg29
S'mich mit Body-Language K\xc3\xb6rpersprache auseinandersetzen\n'
p2050
sbag2
(g3
g4
NtRp2051
(dp2052
g7
g2
(g8
g4
NtRp2053
(dp2054
g11
g1990
sbsg13
g2
(g14
g4
NtRp2055
(dp2056
g13
g17
((I2011
I6
I9
I0
I0
I0
I3
I160
I-1
t(dtRp2057
sbsg19
S''
sg20
g22
sg29
S'Mit den wichtigsten S\xc3\xa4tzen der Chemie und der Physik auseinandersetzen\n'
p2058
sbag2
(g3
g4
NtRp2059
(dp2060
g7
g2
(g8
g4
NtRp2061
(dp2062
g11
g1990
sbsg13
g2
(g14
g4
NtRp2063
(dp2064
g13
g17
((I2011
I6
I9
I0
I0
I0
I3
I160
I-1
t(dtRp2065
sbsg19
S''
sg20
g22
sg29
S'Modern Corporation and American political thought\n'
p2066
sbag2
(g3
g4
NtRp2067
(dp2068
g7
g2
(g8
g4
NtRp2069
(dp2070
g11
g1990
sbsg13
g2
(g14
g4
NtRp2071
(dp2072
g13
g17
((I2011
I6
I9
I0
I0
I0
I3
I160
I-1
t(dtRp2073
sbsg19
S''
sg20
g22
sg29
S'Poetik in Stichworten (Gedicht-Nachschlagewerk) besorgen\n'
p2074
sbag2
(g3
g4
NtRp2075
(dp2076
g7
g2
(g8
g4
NtRp2077
(dp2078
g11
g1990
sbsg13
g2
(g14
g4
NtRp2079
(dp2080
g13
g17
((I2011
I6
I9
I0
I0
I0
I3
I160
I-1
t(dtRp2081
sbsg19
S''
sg20
g22
sg29
S'Polizei-Schulungsb\xc3\xbccher ausleihen\n'
p2082
sbag2
(g3
g4
NtRp2083
(dp2084
g7
g2
(g8
g4
NtRp2085
(dp2086
g11
g1990
sbsg13
g2
(g14
g4
NtRp2087
(dp2088
g13
g17
((I2011
I6
I9
I0
I0
I0
I3
I160
I-1
t(dtRp2089
sbsg19
S''
sg20
g22
sg29
S'Quantentheorie\n'
p2090
sbag2
(g3
g4
NtRp2091
(dp2092
g7
g2
(g8
g4
NtRp2093
(dp2094
g11
g1990
sbsg13
g2
(g14
g4
NtRp2095
(dp2096
g13
g17
((I2011
I6
I9
I0
I0
I0
I3
I160
I-1
t(dtRp2097
sbsg19
S''
sg20
g22
sg29
S'Qumrantexte durchlesen (\xe2\x86\x92 Fantasy-Ideen)\n'
p2098
sbag2
(g3
g4
NtRp2099
(dp2100
g7
g2
(g8
g4
NtRp2101
(dp2102
g11
g1990
sbsg13
g2
(g14
g4
NtRp2103
(dp2104
g13
g17
((I2011
I6
I9
I0
I0
I0
I3
I160
I-1
t(dtRp2105
sbsg19
S''
sg20
g22
sg29
S'Rastafari-Religion\n'
p2106
sbag2
(g3
g4
NtRp2107
(dp2108
g7
g2
(g8
g4
NtRp2109
(dp2110
g11
g1990
sbsg13
g2
(g14
g4
NtRp2111
(dp2112
g13
g17
((I2011
I6
I9
I0
I0
I0
I3
I160
I-1
t(dtRp2113
sbsg19
S''
sg20
g22
sg29
S'Relativit\xc3\xa4tstheorie\n'
p2114
sbag2
(g3
g4
NtRp2115
(dp2116
g7
g2
(g8
g4
NtRp2117
(dp2118
g11
g1990
sbsg13
g2
(g14
g4
NtRp2119
(dp2120
g13
g17
((I2011
I6
I9
I0
I0
I0
I3
I160
I-1
t(dtRp2121
sbsg19
S''
sg20
g22
sg29
S'\xc3\x9cber S\xc3\xbcdkorea als Auswanderungsland informieren\n'
p2122
sbag2
(g3
g4
NtRp2123
(dp2124
g7
g2
(g8
g4
NtRp2125
(dp2126
g11
g1990
sbsg13
g2
(g14
g4
NtRp2127
(dp2128
g13
g17
((I2011
I9
I12
I0
I0
I0
I0
I255
I-1
t(dtRp2129
sbsg19
S''
sg20
g22
sg29
S'WW2-Zeitungen von Gebhardt abholen und f\xc3\xbcr die Schule verwenden\n'
p2130
sbag2
(g3
g4
NtRp2131
(dp2132
g7
g2
(g8
g4
NtRp2133
(dp2134
g11
g1990
sbsg13
g2
(g14
g4
NtRp2135
(dp2136
g13
g17
((I2011
I6
I9
I0
I0
I0
I3
I160
I-1
t(dtRp2137
sbsg19
S''
sg20
g22
sg29
S'Zeitungen nach politischer Richtung zuordnen k\xc3\xb6nnen\n'
p2138
sbag2
(g3
g4
NtRp2139
(dp2140
g7
g2
(g8
g4
NtRp2141
(dp2142
g11
g1990
sbsg13
g2
(g14
g4
NtRp2143
(dp2144
g13
g17
((I2011
I6
I9
I0
I0
I0
I3
I160
I-1
t(dtRp2145
sbsg19
S''
sg20
g22
sg29
S'\xe2\x80\x9eMethodenkompendium: Demokratie an Schulen\xe2\x80\x9c ausprobieren\n'
p2146
sbag2
(g3
g4
NtRp2147
(dp2148
g7
g2
(g8
g4
NtRp2149
(dp2150
g11
S'Kleidung'
p2151
sbsg13
g2
(g14
g4
NtRp2152
(dp2153
g13
g17
((I2011
I5
I15
I0
I0
I0
I6
I135
I-1
t(dtRp2154
sbsg19
S''
sg20
g22
sg29
S'coole T-Shirts kaufen\n'
p2155
sbag2
(g3
g4
NtRp2156
(dp2157
g7
g2
(g8
g4
NtRp2158
(dp2159
g11
g2151
sbsg13
g2
(g14
g4
NtRp2160
(dp2161
g13
g17
((I2011
I5
I15
I0
I0
I0
I6
I135
I-1
t(dtRp2162
sbsg19
S''
sg20
g22
sg29
S'Mehringdamm: 2nd Hand Laden: Hosen kaufen\n'
p2163
sbag2
(g3
g4
NtRp2164
(dp2165
g7
g2
(g8
g4
NtRp2166
(dp2167
g11
g2151
sbsg13
g2
(g14
g4
NtRp2168
(dp2169
g13
g17
((I2011
I5
I15
I0
I0
I0
I6
I135
I-1
t(dtRp2170
sbsg19
S''
sg20
g22
sg29
S'neue Schuhe\n'
p2171
sbag2
(g3
g4
NtRp2172
(dp2173
g7
g2
(g8
g4
NtRp2174
(dp2175
g11
g2151
sbsg13
g2
(g14
g4
NtRp2176
(dp2177
g13
g17
((I2011
I5
I15
I0
I0
I0
I6
I135
I-1
t(dtRp2178
sbsg19
S''
sg20
g22
sg29
S'Winterschuhe besorgen (Globetrotter)\n'
p2179
sbag2
(g3
g4
NtRp2180
(dp2181
S'category'
p2182
g2
(g8
g4
NtRp2183
(dp2184
S'name'
p2185
S'Programming'
p2186
sbsS'date'
p2187
g2
(g14
g4
NtRp2188
(dp2189
g2187
g17
((I2011
I5
I15
I0
I0
I0
I6
I135
I-1
t(dtRp2190
sbsS'notes'
p2191
S'Z.B. : GUI: Board und Menu; Code-Struktur; New Stuff; Bug Hunting; usw.'
p2192
sS'entrylist'
p2193
g2
(g21
g4
NtRp2194
(dp2195
S'UI'
p2196
g2
(g25
g4
NtRp2197
(dp2198
g2193
g2194
sbsS'entries'
p2199
g1
sbsS'description'
p2200
S'DDProg Ideen nach Programmfunktionen gliedern'
p2201
sbag2
(g3
g4
NtRp2202
(dp2203
S'category'
p2204
g2
(g8
g4
NtRp2205
(dp2206
S'name'
p2207
S'No Category'
p2208
sbsS'date'
p2209
g2
(g14
g4
NtRp2210
(dp2211
g2209
g17
((I2011
I5
I15
I0
I0
I0
I6
I135
I-1
t(dtRp2212
sbsS'notes'
p2213
S''
sS'entrylist'
p2214
g2
(g21
g4
NtRp2215
(dp2216
S'UI'
p2217
g2
(g25
g4
NtRp2218
(dp2219
g2214
g2215
sbsS'entries'
p2220
g1
sbsS'description'
p2221
S'einmal w\xc3\xb6chentlich schwimmen'
p2222
sbag2
(g3
g4
NtRp2223
(dp2224
S'category'
p2225
g2
(g8
g4
NtRp2226
(dp2227
S'name'
p2228
S'No Category'
p2229
sbsS'date'
p2230
g2
(g14
g4
NtRp2231
(dp2232
g2230
g17
((I2011
I5
I15
I0
I0
I0
I6
I135
I-1
t(dtRp2233
sbsS'notes'
p2234
S''
sS'entrylist'
p2235
g2
(g21
g4
NtRp2236
(dp2237
S'UI'
p2238
g2
(g25
g4
NtRp2239
(dp2240
g2235
g2236
sbsS'entries'
p2241
g1
sbsS'description'
p2242
S'Design patterns: Elements of reusable object-oriented software by Gamma, Helm, Johnson and Vlissides 1994'
p2243
sbag2
(g3
g4
NtRp2244
(dp2245
g2225
g2
(g8
g4
NtRp2246
(dp2247
g2228
g2229
sbsg2230
g2
(g14
g4
NtRp2248
(dp2249
g2230
g17
((I2011
I5
I15
I0
I0
I0
I6
I135
I-1
t(dtRp2250
sbsg2234
S''
sg2235
g2236
sg2242
S'Pattern-oriented software architecture.  Series by Buschmann et al 1996 and Schmidt et al 2000'
p2251
sbag2
(g3
g4
NtRp2252
(dp2253
g2225
g2
(g8
g4
NtRp2254
(dp2255
g2228
g2229
sbsg2230
g2
(g14
g4
NtRp2256
(dp2257
g2230
g17
((I2011
I5
I15
I0
I0
I0
I6
I135
I-1
t(dtRp2258
sbsg2234
S''
sg2235
g2236
sg2242
S'Object-oriented Software Construction by Meyer 1997'
p2259
sbag2
(g3
g4
NtRp2260
(dp2261
S'category'
p2262
g2
(g8
g4
NtRp2263
(dp2264
S'name'
p2265
S'No Category'
p2266
sbsS'date'
p2267
g2
(g14
g4
NtRp2268
(dp2269
g2267
g17
((I2011
I5
I15
I0
I0
I0
I6
I135
I-1
t(dtRp2270
sbsS'notes'
p2271
S"Joggen ist MEGA-gesund: Manuela hat das gesagt. Mein Psychotherapeut hat das gesagt. Papa hat gesagt, dass sein K\xc3\xb6rper wegen Sport fit ist. Sport macht einfach gl\xc3\xbccklich!! (Warum vergess ich das immer?) Joggen baut Stress ab (sagt die Tinnitus-\xc3\x84rztin) Ich f\xc3\xbchl' mich dabei oder danach voll gut. Joggen(Sport) ist gut f\xc3\xbcr: Verdauung, Ausdauer, Frische, Muskeln, Abnehmen, Herz, Gehirn, Durchblutung usw."
p2272
sS'entrylist'
p2273
g2
(g21
g4
NtRp2274
(dp2275
S'UI'
p2276
g2
(g25
g4
NtRp2277
(dp2278
g2273
g2274
sbsS'entries'
p2279
g1
sbsS'description'
p2280
S'Sportmotivation'
p2281
sbag2
(g3
g4
NtRp2282
(dp2283
S'category'
p2284
g2
(g8
g4
NtRp2285
(dp2286
S'name'
p2287
S'No Category'
p2288
sbsS'date'
p2289
g2
(g14
g4
NtRp2290
(dp2291
g2289
g17
((I2011
I5
I15
I0
I0
I0
I6
I135
I-1
t(dtRp2292
sbsS'notes'
p2293
S''
sS'entrylist'
p2294
g2
(g21
g4
NtRp2295
(dp2296
S'UI'
p2297
g2
(g25
g4
NtRp2298
(dp2299
g2294
g2295
sbsS'entries'
p2300
g1
sbsS'description'
p2301
S'Berlin Boom Orchestra'
p2302
sbag2
(g3
g4
NtRp2303
(dp2304
g2284
g2
(g8
g4
NtRp2305
(dp2306
g2287
g2288
sbsg2289
g2
(g14
g4
NtRp2307
(dp2308
g2289
g17
((I2011
I5
I8
I0
I0
I0
I6
I128
I-1
t(dtRp2309
sbsg2293
S''
sg2294
g2295
sg2301
S'Kampfsport anfangen'
p2310
sbag2
(g3
g4
NtRp2311
(dp2312
S'category'
p2313
g2
(g8
g4
NtRp2314
(dp2315
S'name'
p2316
S'No Category'
p2317
sbsS'date'
p2318
g2
(g14
g4
NtRp2319
(dp2320
g2318
g17
((I2011
I5
I8
I0
I0
I0
I6
I128
I-1
t(dtRp2321
sbsS'notes'
p2322
S''
sS'entrylist'
p2323
g2
(g21
g4
NtRp2324
(dp2325
S'UI'
p2326
g2
(g25
g4
NtRp2327
(dp2328
g2323
g2324
sbsS'entries'
p2329
g1
sbsS'description'
p2330
S'Lebenslauf updaten mit Arbeit f\xc3\xbcr Schroedel, Webbetrieb und Cafeteria'
p2331
sbag2
(g3
g4
NtRp2332
(dp2333
S'category'
p2334
g2
(g8
g4
NtRp2335
(dp2336
S'name'
p2337
S'No Category'
p2338
sbsS'date'
p2339
g2
(g14
g4
NtRp2340
(dp2341
g2339
g17
((I2011
I5
I8
I0
I0
I0
I6
I128
I-1
t(dtRp2342
sbsS'notes'
p2343
S''
sS'entrylist'
p2344
g2
(g21
g4
NtRp2345
(dp2346
S'UI'
p2347
g2
(g25
g4
NtRp2348
(dp2349
g2344
g2345
sbsS'entries'
p2350
g1
sbsS'description'
p2351
S'Fleshlight besorgen'
p2352
sbag2
(g3
g4
NtRp2353
(dp2354
S'category'
p2355
g2
(g8
g4
NtRp2356
(dp2357
S'name'
p2358
S'No Category'
p2359
sbsS'date'
p2360
g2
(g14
g4
NtRp2361
(dp2362
g2360
g17
((I2011
I5
I8
I0
I0
I0
I6
I128
I-1
t(dtRp2363
sbsS'notes'
p2364
S'gut f\xc3\xbcr Oles Daten, pySQL gibts bestimmt, muss ich einfach mal lernen'
p2365
sS'entrylist'
p2366
g2
(g21
g4
NtRp2367
(dp2368
S'UI'
p2369
g2
(g25
g4
NtRp2370
(dp2371
g2366
g2367
sbsS'entries'
p2372
g1
sbsS'description'
p2373
S'SQL und SQLite angucken'
p2374
sbag2
(g3
g4
NtRp2375
(dp2376
S'category'
p2377
g2
(g8
g4
NtRp2378
(dp2379
S'name'
p2380
S'No Category'
p2381
sbsS'date'
p2382
g2
(g14
g4
NtRp2383
(dp2384
g2382
g17
((I2011
I5
I8
I0
I0
I0
I6
I128
I-1
t(dtRp2385
sbsS'notes'
p2386
S'Du landest im 16 oder 17. Jahrhundert und musst/willst Dampfmaschine und Elektromotoren nachbauen.Auch Geschichte Lernspiel: einen anderen Erfinder finden, Ressourcen zum zusammenbasteln kriegen, Ernst genommen werden, Adel usw. Wege und zur\xc3\xbccklegen usw.'
p2387
sS'entrylist'
p2388
g2
(g21
g4
NtRp2389
(dp2390
S'UI'
p2391
g2
(g25
g4
NtRp2392
(dp2393
g2388
g2389
sbsS'entries'
p2394
g1
sbsS'description'
p2395
S'Idee f\xc3\xbcr ein Physik Lernspiel'
p2396
sbag2
(g3
g4
NtRp2397
(dp2398
S'category'
p2399
g2
(g8
g4
NtRp2400
(dp2401
S'name'
p2402
S'No Category'
p2403
sbsS'date'
p2404
g2
(g14
g4
NtRp2405
(dp2406
g2404
g17
((I2011
I5
I8
I0
I0
I0
I6
I128
I-1
t(dtRp2407
sbsS'notes'
p2408
S''
sS'entrylist'
p2409
g2
(g21
g4
NtRp2410
(dp2411
S'UI'
p2412
g2
(g25
g4
NtRp2413
(dp2414
g2409
g2410
sbsS'entries'
p2415
g1
sbsS'description'
p2416
S'Passwortgelegenheiten zum \xc3\x84ndern zusammensammeln'
p2417
sbag2
(g3
g4
NtRp2418
(dp2419
S'category'
p2420
g2
(g8
g4
NtRp2421
(dp2422
S'name'
p2423
S'No Category'
p2424
sbsS'date'
p2425
g2
(g14
g4
NtRp2426
(dp2427
g2425
g17
((I2011
I5
I8
I0
I0
I0
I6
I128
I-1
t(dtRp2428
sbsS'notes'
p2429
S''
sS'entrylist'
p2430
g2
(g21
g4
NtRp2431
(dp2432
S'UI'
p2433
g2
(g25
g4
NtRp2434
(dp2435
g2430
g2431
sbsS'entries'
p2436
g1
sbsS'description'
p2437
S'Zwerg auf dem Berg Buch nochmal durchgucken f\xc3\xbcr Merle'
p2438
sbag2
(g3
g4
NtRp2439
(dp2440
S'category'
p2441
g2
(g8
g4
NtRp2442
(dp2443
S'name'
p2444
S'No Category'
p2445
sbsS'date'
p2446
g2
(g14
g4
NtRp2447
(dp2448
g2446
g17
((I2011
I5
I8
I0
I0
I0
I6
I128
I-1
t(dtRp2449
sbsS'notes'
p2450
S''
sS'entrylist'
p2451
g2
(g21
g4
NtRp2452
(dp2453
S'UI'
p2454
g2
(g25
g4
NtRp2455
(dp2456
g2451
g2452
sbsS'entries'
p2457
g1
sbsS'description'
p2458
S'NAs und Projekte muss ich viel mehr einfach rausschmei\xc3\x9fen! Da d\xc3\xbcrfen NUR Sachen drauf stehen, die ich wirklich ASAP machen will'
p2459
sbag2
(g3
g4
NtRp2460
(dp2461
S'category'
p2462
g2
(g8
g4
NtRp2463
(dp2464
S'name'
p2465
S'No Category'
p2466
sbsS'date'
p2467
g2
(g14
g4
NtRp2468
(dp2469
g2467
g17
((I2011
I5
I8
I0
I0
I0
I6
I128
I-1
t(dtRp2470
sbsS'notes'
p2471
S''
sS'entrylist'
p2472
g2
(g21
g4
NtRp2473
(dp2474
S'UI'
p2475
g2
(g25
g4
NtRp2476
(dp2477
g2472
g2473
sbsS'entries'
p2478
g1
sbsS'description'
p2479
S'Nachhilfe in alles: cfgauss@arcor.de'
p2480
sbag2
(g3
g4
NtRp2481
(dp2482
S'category'
p2483
g2
(g8
g4
NtRp2484
(dp2485
S'name'
p2486
S'No Category'
p2487
sbsS'date'
p2488
g2
(g14
g4
NtRp2489
(dp2490
g2488
g17
((I2011
I5
I8
I0
I0
I0
I6
I128
I-1
t(dtRp2491
sbsS'notes'
p2492
S''
sS'entrylist'
p2493
g2
(g21
g4
NtRp2494
(dp2495
S'UI'
p2496
g2
(g25
g4
NtRp2497
(dp2498
g2493
g2494
sbsS'entries'
p2499
g1
sbsS'description'
p2500
S'Ubuntu Neuinstallation'
p2501
sbag2
(g3
g4
NtRp2502
(dp2503
S'category'
p2504
g2
(g8
g4
NtRp2505
(dp2506
S'name'
p2507
S'No Category'
p2508
sbsS'date'
p2509
g2
(g14
g4
NtRp2510
(dp2511
g2509
g17
((I2011
I5
I8
I0
I0
I0
I6
I128
I-1
t(dtRp2512
sbsS'notes'
p2513
S''
sS'entrylist'
p2514
g2
(g21
g4
NtRp2515
(dp2516
S'UI'
p2517
g2
(g25
g4
NtRp2518
(dp2519
g2514
g2515
sbsS'entries'
p2520
g1
sbsS'description'
p2521
S'Olaf als Designer f\xc3\xbcr Computerkram ansprechen'
p2522
sbag2
(g3
g4
NtRp2523
(dp2524
S'category'
p2525
g2
(g8
g4
NtRp2526
(dp2527
S'name'
p2528
S'No Category'
p2529
sbsS'date'
p2530
g2
(g14
g4
NtRp2531
(dp2532
g2530
g17
((I2011
I5
I8
I0
I0
I0
I6
I128
I-1
t(dtRp2533
sbsS'notes'
p2534
S''
sS'entrylist'
p2535
g2
(g21
g4
NtRp2536
(dp2537
S'UI'
p2538
g2
(g25
g4
NtRp2539
(dp2540
g2535
g2536
sbsS'entries'
p2541
g1
sbsS'description'
p2542
S'Ablagesystem f\xc3\xbcr gr\xc3\xb6\xc3\x9feres Zeug mit variabel nutzbarer Beschriftung einrichten -> Kisten'
p2543
sba.